ARM GAS  F:\msys64\tmp\cc5aZRcQ.s 			page 1


   1              		.cpu cortex-m4
   2              		.arch armv7e-m
   3              		.fpu fpv4-sp-d16
   4              		.eabi_attribute 27, 1
   5              		.eabi_attribute 28, 1
   6              		.eabi_attribute 20, 1
   7              		.eabi_attribute 21, 1
   8              		.eabi_attribute 23, 3
   9              		.eabi_attribute 24, 1
  10              		.eabi_attribute 25, 1
  11              		.eabi_attribute 26, 1
  12              		.eabi_attribute 30, 1
  13              		.eabi_attribute 34, 1
  14              		.eabi_attribute 18, 4
  15              		.file	"gpio.c"
  16              		.text
  17              	.Ltext0:
  18              		.cfi_sections	.debug_frame
  19              		.section	.text.MX_GPIO_Init,"ax",%progbits
  20              		.align	1
  21              		.global	MX_GPIO_Init
  22              		.syntax unified
  23              		.thumb
  24              		.thumb_func
  26              	MX_GPIO_Init:
  27              	.LFB776:
  28              		.file 1 "Core/Src/gpio.c"
   1:Core/Src/gpio.c **** /* USER CODE BEGIN Header */
   2:Core/Src/gpio.c **** /**
   3:Core/Src/gpio.c ****   ******************************************************************************
   4:Core/Src/gpio.c ****   * @file    gpio.c
   5:Core/Src/gpio.c ****   * @brief   This file provides code for the configuration
   6:Core/Src/gpio.c ****   *          of all used GPIO pins.
   7:Core/Src/gpio.c ****   ******************************************************************************
   8:Core/Src/gpio.c ****   * @attention
   9:Core/Src/gpio.c ****   *
  10:Core/Src/gpio.c ****   * Copyright (c) 2024 STMicroelectronics.
  11:Core/Src/gpio.c ****   * All rights reserved.
  12:Core/Src/gpio.c ****   *
  13:Core/Src/gpio.c ****   * This software is licensed under terms that can be found in the LICENSE file
  14:Core/Src/gpio.c ****   * in the root directory of this software component.
  15:Core/Src/gpio.c ****   * If no LICENSE file comes with this software, it is provided AS-IS.
  16:Core/Src/gpio.c ****   *
  17:Core/Src/gpio.c ****   ******************************************************************************
  18:Core/Src/gpio.c ****   */
  19:Core/Src/gpio.c **** /* USER CODE END Header */
  20:Core/Src/gpio.c **** 
  21:Core/Src/gpio.c **** /* Includes ------------------------------------------------------------------*/
  22:Core/Src/gpio.c **** #include "gpio.h"
  23:Core/Src/gpio.c **** 
  24:Core/Src/gpio.c **** /* USER CODE BEGIN 0 */
  25:Core/Src/gpio.c **** 
  26:Core/Src/gpio.c **** /* USER CODE END 0 */
  27:Core/Src/gpio.c **** 
  28:Core/Src/gpio.c **** /*----------------------------------------------------------------------------*/
  29:Core/Src/gpio.c **** /* Configure GPIO                                                             */
  30:Core/Src/gpio.c **** /*----------------------------------------------------------------------------*/
ARM GAS  F:\msys64\tmp\cc5aZRcQ.s 			page 2


  31:Core/Src/gpio.c **** /* USER CODE BEGIN 1 */
  32:Core/Src/gpio.c **** 
  33:Core/Src/gpio.c **** /* USER CODE END 1 */
  34:Core/Src/gpio.c **** 
  35:Core/Src/gpio.c **** /** Configure pins as
  36:Core/Src/gpio.c ****         * Analog
  37:Core/Src/gpio.c ****         * Input
  38:Core/Src/gpio.c ****         * Output
  39:Core/Src/gpio.c ****         * EVENT_OUT
  40:Core/Src/gpio.c ****         * EXTI
  41:Core/Src/gpio.c **** */
  42:Core/Src/gpio.c **** void MX_GPIO_Init(void)
  43:Core/Src/gpio.c **** {
  29              		.loc 1 43 1 view -0
  30              		.cfi_startproc
  31              		@ args = 0, pretend = 0, frame = 32
  32              		@ frame_needed = 0, uses_anonymous_args = 0
  33 0000 30B5     		push	{r4, r5, lr}
  34              	.LCFI0:
  35              		.cfi_def_cfa_offset 12
  36              		.cfi_offset 4, -12
  37              		.cfi_offset 5, -8
  38              		.cfi_offset 14, -4
  39 0002 89B0     		sub	sp, sp, #36
  40              	.LCFI1:
  41              		.cfi_def_cfa_offset 48
  44:Core/Src/gpio.c **** 
  45:Core/Src/gpio.c ****   LL_GPIO_InitTypeDef GPIO_InitStruct = {0};
  42              		.loc 1 45 3 view .LVU1
  43              		.loc 1 45 23 is_stmt 0 view .LVU2
  44 0004 0024     		movs	r4, #0
  45 0006 0294     		str	r4, [sp, #8]
  46 0008 0394     		str	r4, [sp, #12]
  47 000a 0494     		str	r4, [sp, #16]
  48 000c 0594     		str	r4, [sp, #20]
  49 000e 0694     		str	r4, [sp, #24]
  50 0010 0794     		str	r4, [sp, #28]
  46:Core/Src/gpio.c **** 
  47:Core/Src/gpio.c ****   /* GPIO Ports Clock Enable */
  48:Core/Src/gpio.c ****   LL_AHB2_GRP1_EnableClock(LL_AHB2_GRP1_PERIPH_GPIOA);
  51              		.loc 1 48 3 is_stmt 1 view .LVU3
  52              	.LVL0:
  53              	.LBB8:
  54              	.LBI8:
  55              		.file 2 "C:/Users/12522/STM32Cube/Repository/STM32Cube_FW_G4_V1.5.0/Drivers/STM32G4xx_HAL_Driver/I
   1:C:/Users/12522/STM32Cube/Repository/STM32Cube_FW_G4_V1.5.0/Drivers/STM32G4xx_HAL_Driver/Inc\stm32g4xx_ll_bus.h **** /**
   2:C:/Users/12522/STM32Cube/Repository/STM32Cube_FW_G4_V1.5.0/Drivers/STM32G4xx_HAL_Driver/Inc\stm32g4xx_ll_bus.h ****   ******************************************************************************
   3:C:/Users/12522/STM32Cube/Repository/STM32Cube_FW_G4_V1.5.0/Drivers/STM32G4xx_HAL_Driver/Inc\stm32g4xx_ll_bus.h ****   * @file    stm32g4xx_ll_bus.h
   4:C:/Users/12522/STM32Cube/Repository/STM32Cube_FW_G4_V1.5.0/Drivers/STM32G4xx_HAL_Driver/Inc\stm32g4xx_ll_bus.h ****   * @author  MCD Application Team
   5:C:/Users/12522/STM32Cube/Repository/STM32Cube_FW_G4_V1.5.0/Drivers/STM32G4xx_HAL_Driver/Inc\stm32g4xx_ll_bus.h ****   * @brief   Header file of BUS LL module.
   6:C:/Users/12522/STM32Cube/Repository/STM32Cube_FW_G4_V1.5.0/Drivers/STM32G4xx_HAL_Driver/Inc\stm32g4xx_ll_bus.h **** 
   7:C:/Users/12522/STM32Cube/Repository/STM32Cube_FW_G4_V1.5.0/Drivers/STM32G4xx_HAL_Driver/Inc\stm32g4xx_ll_bus.h ****   @verbatim
   8:C:/Users/12522/STM32Cube/Repository/STM32Cube_FW_G4_V1.5.0/Drivers/STM32G4xx_HAL_Driver/Inc\stm32g4xx_ll_bus.h ****                       ##### RCC Limitations #####
   9:C:/Users/12522/STM32Cube/Repository/STM32Cube_FW_G4_V1.5.0/Drivers/STM32G4xx_HAL_Driver/Inc\stm32g4xx_ll_bus.h ****   ==============================================================================
  10:C:/Users/12522/STM32Cube/Repository/STM32Cube_FW_G4_V1.5.0/Drivers/STM32G4xx_HAL_Driver/Inc\stm32g4xx_ll_bus.h ****     [..]
  11:C:/Users/12522/STM32Cube/Repository/STM32Cube_FW_G4_V1.5.0/Drivers/STM32G4xx_HAL_Driver/Inc\stm32g4xx_ll_bus.h ****       A delay between an RCC peripheral clock enable and the effective peripheral
  12:C:/Users/12522/STM32Cube/Repository/STM32Cube_FW_G4_V1.5.0/Drivers/STM32G4xx_HAL_Driver/Inc\stm32g4xx_ll_bus.h ****       enabling should be taken into account in order to manage the peripheral read/write
ARM GAS  F:\msys64\tmp\cc5aZRcQ.s 			page 3


  13:C:/Users/12522/STM32Cube/Repository/STM32Cube_FW_G4_V1.5.0/Drivers/STM32G4xx_HAL_Driver/Inc\stm32g4xx_ll_bus.h ****       from/to registers.
  14:C:/Users/12522/STM32Cube/Repository/STM32Cube_FW_G4_V1.5.0/Drivers/STM32G4xx_HAL_Driver/Inc\stm32g4xx_ll_bus.h ****       (+) This delay depends on the peripheral mapping.
  15:C:/Users/12522/STM32Cube/Repository/STM32Cube_FW_G4_V1.5.0/Drivers/STM32G4xx_HAL_Driver/Inc\stm32g4xx_ll_bus.h ****         (++) AHB & APB peripherals, 1 dummy read is necessary
  16:C:/Users/12522/STM32Cube/Repository/STM32Cube_FW_G4_V1.5.0/Drivers/STM32G4xx_HAL_Driver/Inc\stm32g4xx_ll_bus.h **** 
  17:C:/Users/12522/STM32Cube/Repository/STM32Cube_FW_G4_V1.5.0/Drivers/STM32G4xx_HAL_Driver/Inc\stm32g4xx_ll_bus.h ****     [..]
  18:C:/Users/12522/STM32Cube/Repository/STM32Cube_FW_G4_V1.5.0/Drivers/STM32G4xx_HAL_Driver/Inc\stm32g4xx_ll_bus.h ****       Workarounds:
  19:C:/Users/12522/STM32Cube/Repository/STM32Cube_FW_G4_V1.5.0/Drivers/STM32G4xx_HAL_Driver/Inc\stm32g4xx_ll_bus.h ****       (#) For AHB & APB peripherals, a dummy read to the peripheral register has been
  20:C:/Users/12522/STM32Cube/Repository/STM32Cube_FW_G4_V1.5.0/Drivers/STM32G4xx_HAL_Driver/Inc\stm32g4xx_ll_bus.h ****           inserted in each LL_{BUS}_GRP{x}_EnableClock() function.
  21:C:/Users/12522/STM32Cube/Repository/STM32Cube_FW_G4_V1.5.0/Drivers/STM32G4xx_HAL_Driver/Inc\stm32g4xx_ll_bus.h **** 
  22:C:/Users/12522/STM32Cube/Repository/STM32Cube_FW_G4_V1.5.0/Drivers/STM32G4xx_HAL_Driver/Inc\stm32g4xx_ll_bus.h ****   @endverbatim
  23:C:/Users/12522/STM32Cube/Repository/STM32Cube_FW_G4_V1.5.0/Drivers/STM32G4xx_HAL_Driver/Inc\stm32g4xx_ll_bus.h ****   ******************************************************************************
  24:C:/Users/12522/STM32Cube/Repository/STM32Cube_FW_G4_V1.5.0/Drivers/STM32G4xx_HAL_Driver/Inc\stm32g4xx_ll_bus.h ****   * @attention
  25:C:/Users/12522/STM32Cube/Repository/STM32Cube_FW_G4_V1.5.0/Drivers/STM32G4xx_HAL_Driver/Inc\stm32g4xx_ll_bus.h ****   *
  26:C:/Users/12522/STM32Cube/Repository/STM32Cube_FW_G4_V1.5.0/Drivers/STM32G4xx_HAL_Driver/Inc\stm32g4xx_ll_bus.h ****   * Copyright (c) 2019 STMicroelectronics.
  27:C:/Users/12522/STM32Cube/Repository/STM32Cube_FW_G4_V1.5.0/Drivers/STM32G4xx_HAL_Driver/Inc\stm32g4xx_ll_bus.h ****   * All rights reserved.
  28:C:/Users/12522/STM32Cube/Repository/STM32Cube_FW_G4_V1.5.0/Drivers/STM32G4xx_HAL_Driver/Inc\stm32g4xx_ll_bus.h ****   *
  29:C:/Users/12522/STM32Cube/Repository/STM32Cube_FW_G4_V1.5.0/Drivers/STM32G4xx_HAL_Driver/Inc\stm32g4xx_ll_bus.h ****   * This software is licensed under terms that can be found in the LICENSE file in
  30:C:/Users/12522/STM32Cube/Repository/STM32Cube_FW_G4_V1.5.0/Drivers/STM32G4xx_HAL_Driver/Inc\stm32g4xx_ll_bus.h ****   * the root directory of this software component.
  31:C:/Users/12522/STM32Cube/Repository/STM32Cube_FW_G4_V1.5.0/Drivers/STM32G4xx_HAL_Driver/Inc\stm32g4xx_ll_bus.h ****   * If no LICENSE file comes with this software, it is provided AS-IS.
  32:C:/Users/12522/STM32Cube/Repository/STM32Cube_FW_G4_V1.5.0/Drivers/STM32G4xx_HAL_Driver/Inc\stm32g4xx_ll_bus.h ****   ******************************************************************************
  33:C:/Users/12522/STM32Cube/Repository/STM32Cube_FW_G4_V1.5.0/Drivers/STM32G4xx_HAL_Driver/Inc\stm32g4xx_ll_bus.h ****   */
  34:C:/Users/12522/STM32Cube/Repository/STM32Cube_FW_G4_V1.5.0/Drivers/STM32G4xx_HAL_Driver/Inc\stm32g4xx_ll_bus.h **** 
  35:C:/Users/12522/STM32Cube/Repository/STM32Cube_FW_G4_V1.5.0/Drivers/STM32G4xx_HAL_Driver/Inc\stm32g4xx_ll_bus.h **** /* Define to prevent recursive inclusion -------------------------------------*/
  36:C:/Users/12522/STM32Cube/Repository/STM32Cube_FW_G4_V1.5.0/Drivers/STM32G4xx_HAL_Driver/Inc\stm32g4xx_ll_bus.h **** #ifndef STM32G4xx_LL_BUS_H
  37:C:/Users/12522/STM32Cube/Repository/STM32Cube_FW_G4_V1.5.0/Drivers/STM32G4xx_HAL_Driver/Inc\stm32g4xx_ll_bus.h **** #define STM32G4xx_LL_BUS_H
  38:C:/Users/12522/STM32Cube/Repository/STM32Cube_FW_G4_V1.5.0/Drivers/STM32G4xx_HAL_Driver/Inc\stm32g4xx_ll_bus.h **** 
  39:C:/Users/12522/STM32Cube/Repository/STM32Cube_FW_G4_V1.5.0/Drivers/STM32G4xx_HAL_Driver/Inc\stm32g4xx_ll_bus.h **** #ifdef __cplusplus
  40:C:/Users/12522/STM32Cube/Repository/STM32Cube_FW_G4_V1.5.0/Drivers/STM32G4xx_HAL_Driver/Inc\stm32g4xx_ll_bus.h **** extern "C" {
  41:C:/Users/12522/STM32Cube/Repository/STM32Cube_FW_G4_V1.5.0/Drivers/STM32G4xx_HAL_Driver/Inc\stm32g4xx_ll_bus.h **** #endif
  42:C:/Users/12522/STM32Cube/Repository/STM32Cube_FW_G4_V1.5.0/Drivers/STM32G4xx_HAL_Driver/Inc\stm32g4xx_ll_bus.h **** 
  43:C:/Users/12522/STM32Cube/Repository/STM32Cube_FW_G4_V1.5.0/Drivers/STM32G4xx_HAL_Driver/Inc\stm32g4xx_ll_bus.h **** /* Includes ------------------------------------------------------------------*/
  44:C:/Users/12522/STM32Cube/Repository/STM32Cube_FW_G4_V1.5.0/Drivers/STM32G4xx_HAL_Driver/Inc\stm32g4xx_ll_bus.h **** #include "stm32g4xx.h"
  45:C:/Users/12522/STM32Cube/Repository/STM32Cube_FW_G4_V1.5.0/Drivers/STM32G4xx_HAL_Driver/Inc\stm32g4xx_ll_bus.h **** 
  46:C:/Users/12522/STM32Cube/Repository/STM32Cube_FW_G4_V1.5.0/Drivers/STM32G4xx_HAL_Driver/Inc\stm32g4xx_ll_bus.h **** /** @addtogroup STM32G4xx_LL_Driver
  47:C:/Users/12522/STM32Cube/Repository/STM32Cube_FW_G4_V1.5.0/Drivers/STM32G4xx_HAL_Driver/Inc\stm32g4xx_ll_bus.h ****   * @{
  48:C:/Users/12522/STM32Cube/Repository/STM32Cube_FW_G4_V1.5.0/Drivers/STM32G4xx_HAL_Driver/Inc\stm32g4xx_ll_bus.h ****   */
  49:C:/Users/12522/STM32Cube/Repository/STM32Cube_FW_G4_V1.5.0/Drivers/STM32G4xx_HAL_Driver/Inc\stm32g4xx_ll_bus.h **** 
  50:C:/Users/12522/STM32Cube/Repository/STM32Cube_FW_G4_V1.5.0/Drivers/STM32G4xx_HAL_Driver/Inc\stm32g4xx_ll_bus.h **** #if defined(RCC)
  51:C:/Users/12522/STM32Cube/Repository/STM32Cube_FW_G4_V1.5.0/Drivers/STM32G4xx_HAL_Driver/Inc\stm32g4xx_ll_bus.h **** 
  52:C:/Users/12522/STM32Cube/Repository/STM32Cube_FW_G4_V1.5.0/Drivers/STM32G4xx_HAL_Driver/Inc\stm32g4xx_ll_bus.h **** /** @defgroup BUS_LL BUS
  53:C:/Users/12522/STM32Cube/Repository/STM32Cube_FW_G4_V1.5.0/Drivers/STM32G4xx_HAL_Driver/Inc\stm32g4xx_ll_bus.h ****   * @{
  54:C:/Users/12522/STM32Cube/Repository/STM32Cube_FW_G4_V1.5.0/Drivers/STM32G4xx_HAL_Driver/Inc\stm32g4xx_ll_bus.h ****   */
  55:C:/Users/12522/STM32Cube/Repository/STM32Cube_FW_G4_V1.5.0/Drivers/STM32G4xx_HAL_Driver/Inc\stm32g4xx_ll_bus.h **** 
  56:C:/Users/12522/STM32Cube/Repository/STM32Cube_FW_G4_V1.5.0/Drivers/STM32G4xx_HAL_Driver/Inc\stm32g4xx_ll_bus.h **** /* Private types -------------------------------------------------------------*/
  57:C:/Users/12522/STM32Cube/Repository/STM32Cube_FW_G4_V1.5.0/Drivers/STM32G4xx_HAL_Driver/Inc\stm32g4xx_ll_bus.h **** /* Private variables ---------------------------------------------------------*/
  58:C:/Users/12522/STM32Cube/Repository/STM32Cube_FW_G4_V1.5.0/Drivers/STM32G4xx_HAL_Driver/Inc\stm32g4xx_ll_bus.h **** 
  59:C:/Users/12522/STM32Cube/Repository/STM32Cube_FW_G4_V1.5.0/Drivers/STM32G4xx_HAL_Driver/Inc\stm32g4xx_ll_bus.h **** /* Private constants ---------------------------------------------------------*/
  60:C:/Users/12522/STM32Cube/Repository/STM32Cube_FW_G4_V1.5.0/Drivers/STM32G4xx_HAL_Driver/Inc\stm32g4xx_ll_bus.h **** 
  61:C:/Users/12522/STM32Cube/Repository/STM32Cube_FW_G4_V1.5.0/Drivers/STM32G4xx_HAL_Driver/Inc\stm32g4xx_ll_bus.h **** /* Private macros ------------------------------------------------------------*/
  62:C:/Users/12522/STM32Cube/Repository/STM32Cube_FW_G4_V1.5.0/Drivers/STM32G4xx_HAL_Driver/Inc\stm32g4xx_ll_bus.h **** 
  63:C:/Users/12522/STM32Cube/Repository/STM32Cube_FW_G4_V1.5.0/Drivers/STM32G4xx_HAL_Driver/Inc\stm32g4xx_ll_bus.h **** /* Exported types ------------------------------------------------------------*/
  64:C:/Users/12522/STM32Cube/Repository/STM32Cube_FW_G4_V1.5.0/Drivers/STM32G4xx_HAL_Driver/Inc\stm32g4xx_ll_bus.h **** /* Exported constants --------------------------------------------------------*/
  65:C:/Users/12522/STM32Cube/Repository/STM32Cube_FW_G4_V1.5.0/Drivers/STM32G4xx_HAL_Driver/Inc\stm32g4xx_ll_bus.h **** /** @defgroup BUS_LL_Exported_Constants BUS Exported Constants
  66:C:/Users/12522/STM32Cube/Repository/STM32Cube_FW_G4_V1.5.0/Drivers/STM32G4xx_HAL_Driver/Inc\stm32g4xx_ll_bus.h ****   * @{
  67:C:/Users/12522/STM32Cube/Repository/STM32Cube_FW_G4_V1.5.0/Drivers/STM32G4xx_HAL_Driver/Inc\stm32g4xx_ll_bus.h ****   */
  68:C:/Users/12522/STM32Cube/Repository/STM32Cube_FW_G4_V1.5.0/Drivers/STM32G4xx_HAL_Driver/Inc\stm32g4xx_ll_bus.h **** 
  69:C:/Users/12522/STM32Cube/Repository/STM32Cube_FW_G4_V1.5.0/Drivers/STM32G4xx_HAL_Driver/Inc\stm32g4xx_ll_bus.h **** /** @defgroup BUS_LL_EC_AHB1_GRP1_PERIPH  AHB1 GRP1 PERIPH
ARM GAS  F:\msys64\tmp\cc5aZRcQ.s 			page 4


  70:C:/Users/12522/STM32Cube/Repository/STM32Cube_FW_G4_V1.5.0/Drivers/STM32G4xx_HAL_Driver/Inc\stm32g4xx_ll_bus.h ****   * @{
  71:C:/Users/12522/STM32Cube/Repository/STM32Cube_FW_G4_V1.5.0/Drivers/STM32G4xx_HAL_Driver/Inc\stm32g4xx_ll_bus.h ****   */
  72:C:/Users/12522/STM32Cube/Repository/STM32Cube_FW_G4_V1.5.0/Drivers/STM32G4xx_HAL_Driver/Inc\stm32g4xx_ll_bus.h **** #define LL_AHB1_GRP1_PERIPH_ALL            0xFFFFFFFFU
  73:C:/Users/12522/STM32Cube/Repository/STM32Cube_FW_G4_V1.5.0/Drivers/STM32G4xx_HAL_Driver/Inc\stm32g4xx_ll_bus.h **** #define LL_AHB1_GRP1_PERIPH_DMA1           RCC_AHB1ENR_DMA1EN
  74:C:/Users/12522/STM32Cube/Repository/STM32Cube_FW_G4_V1.5.0/Drivers/STM32G4xx_HAL_Driver/Inc\stm32g4xx_ll_bus.h **** #define LL_AHB1_GRP1_PERIPH_DMA2           RCC_AHB1ENR_DMA2EN
  75:C:/Users/12522/STM32Cube/Repository/STM32Cube_FW_G4_V1.5.0/Drivers/STM32G4xx_HAL_Driver/Inc\stm32g4xx_ll_bus.h **** #define LL_AHB1_GRP1_PERIPH_DMAMUX1        RCC_AHB1ENR_DMAMUX1EN
  76:C:/Users/12522/STM32Cube/Repository/STM32Cube_FW_G4_V1.5.0/Drivers/STM32G4xx_HAL_Driver/Inc\stm32g4xx_ll_bus.h **** #define LL_AHB1_GRP1_PERIPH_CORDIC         RCC_AHB1ENR_CORDICEN
  77:C:/Users/12522/STM32Cube/Repository/STM32Cube_FW_G4_V1.5.0/Drivers/STM32G4xx_HAL_Driver/Inc\stm32g4xx_ll_bus.h **** #define LL_AHB1_GRP1_PERIPH_FMAC           RCC_AHB1ENR_FMACEN
  78:C:/Users/12522/STM32Cube/Repository/STM32Cube_FW_G4_V1.5.0/Drivers/STM32G4xx_HAL_Driver/Inc\stm32g4xx_ll_bus.h **** #define LL_AHB1_GRP1_PERIPH_FLASH          RCC_AHB1ENR_FLASHEN
  79:C:/Users/12522/STM32Cube/Repository/STM32Cube_FW_G4_V1.5.0/Drivers/STM32G4xx_HAL_Driver/Inc\stm32g4xx_ll_bus.h **** #define LL_AHB1_GRP1_PERIPH_SRAM1          RCC_AHB1SMENR_SRAM1SMEN
  80:C:/Users/12522/STM32Cube/Repository/STM32Cube_FW_G4_V1.5.0/Drivers/STM32G4xx_HAL_Driver/Inc\stm32g4xx_ll_bus.h **** #define LL_AHB1_GRP1_PERIPH_CRC            RCC_AHB1ENR_CRCEN
  81:C:/Users/12522/STM32Cube/Repository/STM32Cube_FW_G4_V1.5.0/Drivers/STM32G4xx_HAL_Driver/Inc\stm32g4xx_ll_bus.h **** /**
  82:C:/Users/12522/STM32Cube/Repository/STM32Cube_FW_G4_V1.5.0/Drivers/STM32G4xx_HAL_Driver/Inc\stm32g4xx_ll_bus.h ****   * @}
  83:C:/Users/12522/STM32Cube/Repository/STM32Cube_FW_G4_V1.5.0/Drivers/STM32G4xx_HAL_Driver/Inc\stm32g4xx_ll_bus.h ****   */
  84:C:/Users/12522/STM32Cube/Repository/STM32Cube_FW_G4_V1.5.0/Drivers/STM32G4xx_HAL_Driver/Inc\stm32g4xx_ll_bus.h **** 
  85:C:/Users/12522/STM32Cube/Repository/STM32Cube_FW_G4_V1.5.0/Drivers/STM32G4xx_HAL_Driver/Inc\stm32g4xx_ll_bus.h **** /** @defgroup BUS_LL_EC_AHB2_GRP1_PERIPH  AHB2 GRP1 PERIPH
  86:C:/Users/12522/STM32Cube/Repository/STM32Cube_FW_G4_V1.5.0/Drivers/STM32G4xx_HAL_Driver/Inc\stm32g4xx_ll_bus.h ****   * @{
  87:C:/Users/12522/STM32Cube/Repository/STM32Cube_FW_G4_V1.5.0/Drivers/STM32G4xx_HAL_Driver/Inc\stm32g4xx_ll_bus.h ****   */
  88:C:/Users/12522/STM32Cube/Repository/STM32Cube_FW_G4_V1.5.0/Drivers/STM32G4xx_HAL_Driver/Inc\stm32g4xx_ll_bus.h **** #define LL_AHB2_GRP1_PERIPH_ALL            0xFFFFFFFFU
  89:C:/Users/12522/STM32Cube/Repository/STM32Cube_FW_G4_V1.5.0/Drivers/STM32G4xx_HAL_Driver/Inc\stm32g4xx_ll_bus.h **** #define LL_AHB2_GRP1_PERIPH_GPIOA          RCC_AHB2ENR_GPIOAEN
  90:C:/Users/12522/STM32Cube/Repository/STM32Cube_FW_G4_V1.5.0/Drivers/STM32G4xx_HAL_Driver/Inc\stm32g4xx_ll_bus.h **** #define LL_AHB2_GRP1_PERIPH_GPIOB          RCC_AHB2ENR_GPIOBEN
  91:C:/Users/12522/STM32Cube/Repository/STM32Cube_FW_G4_V1.5.0/Drivers/STM32G4xx_HAL_Driver/Inc\stm32g4xx_ll_bus.h **** #define LL_AHB2_GRP1_PERIPH_GPIOC          RCC_AHB2ENR_GPIOCEN
  92:C:/Users/12522/STM32Cube/Repository/STM32Cube_FW_G4_V1.5.0/Drivers/STM32G4xx_HAL_Driver/Inc\stm32g4xx_ll_bus.h **** #define LL_AHB2_GRP1_PERIPH_GPIOD          RCC_AHB2ENR_GPIODEN
  93:C:/Users/12522/STM32Cube/Repository/STM32Cube_FW_G4_V1.5.0/Drivers/STM32G4xx_HAL_Driver/Inc\stm32g4xx_ll_bus.h **** #define LL_AHB2_GRP1_PERIPH_GPIOE          RCC_AHB2ENR_GPIOEEN
  94:C:/Users/12522/STM32Cube/Repository/STM32Cube_FW_G4_V1.5.0/Drivers/STM32G4xx_HAL_Driver/Inc\stm32g4xx_ll_bus.h **** #define LL_AHB2_GRP1_PERIPH_GPIOF          RCC_AHB2ENR_GPIOFEN
  95:C:/Users/12522/STM32Cube/Repository/STM32Cube_FW_G4_V1.5.0/Drivers/STM32G4xx_HAL_Driver/Inc\stm32g4xx_ll_bus.h **** #define LL_AHB2_GRP1_PERIPH_GPIOG          RCC_AHB2ENR_GPIOGEN
  96:C:/Users/12522/STM32Cube/Repository/STM32Cube_FW_G4_V1.5.0/Drivers/STM32G4xx_HAL_Driver/Inc\stm32g4xx_ll_bus.h **** #define LL_AHB2_GRP1_PERIPH_CCM            RCC_AHB2SMENR_CCMSMEN
  97:C:/Users/12522/STM32Cube/Repository/STM32Cube_FW_G4_V1.5.0/Drivers/STM32G4xx_HAL_Driver/Inc\stm32g4xx_ll_bus.h **** #define LL_AHB2_GRP1_PERIPH_SRAM2          RCC_AHB2SMENR_SRAM2SMEN
  98:C:/Users/12522/STM32Cube/Repository/STM32Cube_FW_G4_V1.5.0/Drivers/STM32G4xx_HAL_Driver/Inc\stm32g4xx_ll_bus.h **** #define LL_AHB2_GRP1_PERIPH_ADC12          RCC_AHB2ENR_ADC12EN
  99:C:/Users/12522/STM32Cube/Repository/STM32Cube_FW_G4_V1.5.0/Drivers/STM32G4xx_HAL_Driver/Inc\stm32g4xx_ll_bus.h **** #if defined(ADC345_COMMON)
 100:C:/Users/12522/STM32Cube/Repository/STM32Cube_FW_G4_V1.5.0/Drivers/STM32G4xx_HAL_Driver/Inc\stm32g4xx_ll_bus.h **** #define LL_AHB2_GRP1_PERIPH_ADC345         RCC_AHB2ENR_ADC345EN
 101:C:/Users/12522/STM32Cube/Repository/STM32Cube_FW_G4_V1.5.0/Drivers/STM32G4xx_HAL_Driver/Inc\stm32g4xx_ll_bus.h **** #endif /* ADC345_COMMON */
 102:C:/Users/12522/STM32Cube/Repository/STM32Cube_FW_G4_V1.5.0/Drivers/STM32G4xx_HAL_Driver/Inc\stm32g4xx_ll_bus.h **** #define LL_AHB2_GRP1_PERIPH_DAC1           RCC_AHB2ENR_DAC1EN
 103:C:/Users/12522/STM32Cube/Repository/STM32Cube_FW_G4_V1.5.0/Drivers/STM32G4xx_HAL_Driver/Inc\stm32g4xx_ll_bus.h **** #if defined(DAC2)
 104:C:/Users/12522/STM32Cube/Repository/STM32Cube_FW_G4_V1.5.0/Drivers/STM32G4xx_HAL_Driver/Inc\stm32g4xx_ll_bus.h **** #define LL_AHB2_GRP1_PERIPH_DAC2           RCC_AHB2ENR_DAC2EN
 105:C:/Users/12522/STM32Cube/Repository/STM32Cube_FW_G4_V1.5.0/Drivers/STM32G4xx_HAL_Driver/Inc\stm32g4xx_ll_bus.h **** #endif /* DAC2 */
 106:C:/Users/12522/STM32Cube/Repository/STM32Cube_FW_G4_V1.5.0/Drivers/STM32G4xx_HAL_Driver/Inc\stm32g4xx_ll_bus.h **** #define LL_AHB2_GRP1_PERIPH_DAC3           RCC_AHB2ENR_DAC3EN
 107:C:/Users/12522/STM32Cube/Repository/STM32Cube_FW_G4_V1.5.0/Drivers/STM32G4xx_HAL_Driver/Inc\stm32g4xx_ll_bus.h **** #if defined(DAC4)
 108:C:/Users/12522/STM32Cube/Repository/STM32Cube_FW_G4_V1.5.0/Drivers/STM32G4xx_HAL_Driver/Inc\stm32g4xx_ll_bus.h **** #define LL_AHB2_GRP1_PERIPH_DAC4           RCC_AHB2ENR_DAC4EN
 109:C:/Users/12522/STM32Cube/Repository/STM32Cube_FW_G4_V1.5.0/Drivers/STM32G4xx_HAL_Driver/Inc\stm32g4xx_ll_bus.h **** #endif /* DAC4 */
 110:C:/Users/12522/STM32Cube/Repository/STM32Cube_FW_G4_V1.5.0/Drivers/STM32G4xx_HAL_Driver/Inc\stm32g4xx_ll_bus.h **** #if defined(AES)
 111:C:/Users/12522/STM32Cube/Repository/STM32Cube_FW_G4_V1.5.0/Drivers/STM32G4xx_HAL_Driver/Inc\stm32g4xx_ll_bus.h **** #define LL_AHB2_GRP1_PERIPH_AES            RCC_AHB2ENR_AESEN
 112:C:/Users/12522/STM32Cube/Repository/STM32Cube_FW_G4_V1.5.0/Drivers/STM32G4xx_HAL_Driver/Inc\stm32g4xx_ll_bus.h **** #endif /* AES */
 113:C:/Users/12522/STM32Cube/Repository/STM32Cube_FW_G4_V1.5.0/Drivers/STM32G4xx_HAL_Driver/Inc\stm32g4xx_ll_bus.h **** #define LL_AHB2_GRP1_PERIPH_RNG            RCC_AHB2ENR_RNGEN
 114:C:/Users/12522/STM32Cube/Repository/STM32Cube_FW_G4_V1.5.0/Drivers/STM32G4xx_HAL_Driver/Inc\stm32g4xx_ll_bus.h **** /**
 115:C:/Users/12522/STM32Cube/Repository/STM32Cube_FW_G4_V1.5.0/Drivers/STM32G4xx_HAL_Driver/Inc\stm32g4xx_ll_bus.h ****   * @}
 116:C:/Users/12522/STM32Cube/Repository/STM32Cube_FW_G4_V1.5.0/Drivers/STM32G4xx_HAL_Driver/Inc\stm32g4xx_ll_bus.h ****   */
 117:C:/Users/12522/STM32Cube/Repository/STM32Cube_FW_G4_V1.5.0/Drivers/STM32G4xx_HAL_Driver/Inc\stm32g4xx_ll_bus.h **** 
 118:C:/Users/12522/STM32Cube/Repository/STM32Cube_FW_G4_V1.5.0/Drivers/STM32G4xx_HAL_Driver/Inc\stm32g4xx_ll_bus.h **** /** @defgroup BUS_LL_EC_AHB3_GRP1_PERIPH  AHB3 GRP1 PERIPH
 119:C:/Users/12522/STM32Cube/Repository/STM32Cube_FW_G4_V1.5.0/Drivers/STM32G4xx_HAL_Driver/Inc\stm32g4xx_ll_bus.h ****   * @{
 120:C:/Users/12522/STM32Cube/Repository/STM32Cube_FW_G4_V1.5.0/Drivers/STM32G4xx_HAL_Driver/Inc\stm32g4xx_ll_bus.h ****   */
 121:C:/Users/12522/STM32Cube/Repository/STM32Cube_FW_G4_V1.5.0/Drivers/STM32G4xx_HAL_Driver/Inc\stm32g4xx_ll_bus.h **** #define LL_AHB3_GRP1_PERIPH_ALL            0xFFFFFFFFU
 122:C:/Users/12522/STM32Cube/Repository/STM32Cube_FW_G4_V1.5.0/Drivers/STM32G4xx_HAL_Driver/Inc\stm32g4xx_ll_bus.h **** #if defined(FMC_Bank1_R)
 123:C:/Users/12522/STM32Cube/Repository/STM32Cube_FW_G4_V1.5.0/Drivers/STM32G4xx_HAL_Driver/Inc\stm32g4xx_ll_bus.h **** #define LL_AHB3_GRP1_PERIPH_FMC            RCC_AHB3ENR_FMCEN
 124:C:/Users/12522/STM32Cube/Repository/STM32Cube_FW_G4_V1.5.0/Drivers/STM32G4xx_HAL_Driver/Inc\stm32g4xx_ll_bus.h **** #endif /* FMC_Bank1_R */
 125:C:/Users/12522/STM32Cube/Repository/STM32Cube_FW_G4_V1.5.0/Drivers/STM32G4xx_HAL_Driver/Inc\stm32g4xx_ll_bus.h **** #if defined(QUADSPI)
 126:C:/Users/12522/STM32Cube/Repository/STM32Cube_FW_G4_V1.5.0/Drivers/STM32G4xx_HAL_Driver/Inc\stm32g4xx_ll_bus.h **** #define LL_AHB3_GRP1_PERIPH_QSPI           RCC_AHB3ENR_QSPIEN
ARM GAS  F:\msys64\tmp\cc5aZRcQ.s 			page 5


 127:C:/Users/12522/STM32Cube/Repository/STM32Cube_FW_G4_V1.5.0/Drivers/STM32G4xx_HAL_Driver/Inc\stm32g4xx_ll_bus.h **** #endif /* QUADSPI */
 128:C:/Users/12522/STM32Cube/Repository/STM32Cube_FW_G4_V1.5.0/Drivers/STM32G4xx_HAL_Driver/Inc\stm32g4xx_ll_bus.h **** /**
 129:C:/Users/12522/STM32Cube/Repository/STM32Cube_FW_G4_V1.5.0/Drivers/STM32G4xx_HAL_Driver/Inc\stm32g4xx_ll_bus.h ****   * @}
 130:C:/Users/12522/STM32Cube/Repository/STM32Cube_FW_G4_V1.5.0/Drivers/STM32G4xx_HAL_Driver/Inc\stm32g4xx_ll_bus.h ****   */
 131:C:/Users/12522/STM32Cube/Repository/STM32Cube_FW_G4_V1.5.0/Drivers/STM32G4xx_HAL_Driver/Inc\stm32g4xx_ll_bus.h **** 
 132:C:/Users/12522/STM32Cube/Repository/STM32Cube_FW_G4_V1.5.0/Drivers/STM32G4xx_HAL_Driver/Inc\stm32g4xx_ll_bus.h **** /** @defgroup BUS_LL_EC_APB1_GRP1_PERIPH  APB1 GRP1 PERIPH
 133:C:/Users/12522/STM32Cube/Repository/STM32Cube_FW_G4_V1.5.0/Drivers/STM32G4xx_HAL_Driver/Inc\stm32g4xx_ll_bus.h ****   * @{
 134:C:/Users/12522/STM32Cube/Repository/STM32Cube_FW_G4_V1.5.0/Drivers/STM32G4xx_HAL_Driver/Inc\stm32g4xx_ll_bus.h ****   */
 135:C:/Users/12522/STM32Cube/Repository/STM32Cube_FW_G4_V1.5.0/Drivers/STM32G4xx_HAL_Driver/Inc\stm32g4xx_ll_bus.h **** #define LL_APB1_GRP1_PERIPH_ALL            0xFFFFFFFFU
 136:C:/Users/12522/STM32Cube/Repository/STM32Cube_FW_G4_V1.5.0/Drivers/STM32G4xx_HAL_Driver/Inc\stm32g4xx_ll_bus.h **** #define LL_APB1_GRP1_PERIPH_TIM2           RCC_APB1ENR1_TIM2EN
 137:C:/Users/12522/STM32Cube/Repository/STM32Cube_FW_G4_V1.5.0/Drivers/STM32G4xx_HAL_Driver/Inc\stm32g4xx_ll_bus.h **** #define LL_APB1_GRP1_PERIPH_TIM3           RCC_APB1ENR1_TIM3EN
 138:C:/Users/12522/STM32Cube/Repository/STM32Cube_FW_G4_V1.5.0/Drivers/STM32G4xx_HAL_Driver/Inc\stm32g4xx_ll_bus.h **** #define LL_APB1_GRP1_PERIPH_TIM4           RCC_APB1ENR1_TIM4EN
 139:C:/Users/12522/STM32Cube/Repository/STM32Cube_FW_G4_V1.5.0/Drivers/STM32G4xx_HAL_Driver/Inc\stm32g4xx_ll_bus.h **** #if defined(TIM5)
 140:C:/Users/12522/STM32Cube/Repository/STM32Cube_FW_G4_V1.5.0/Drivers/STM32G4xx_HAL_Driver/Inc\stm32g4xx_ll_bus.h **** #define LL_APB1_GRP1_PERIPH_TIM5           RCC_APB1ENR1_TIM5EN
 141:C:/Users/12522/STM32Cube/Repository/STM32Cube_FW_G4_V1.5.0/Drivers/STM32G4xx_HAL_Driver/Inc\stm32g4xx_ll_bus.h **** #endif /* TIM5 */
 142:C:/Users/12522/STM32Cube/Repository/STM32Cube_FW_G4_V1.5.0/Drivers/STM32G4xx_HAL_Driver/Inc\stm32g4xx_ll_bus.h **** #define LL_APB1_GRP1_PERIPH_TIM6           RCC_APB1ENR1_TIM6EN
 143:C:/Users/12522/STM32Cube/Repository/STM32Cube_FW_G4_V1.5.0/Drivers/STM32G4xx_HAL_Driver/Inc\stm32g4xx_ll_bus.h **** #define LL_APB1_GRP1_PERIPH_TIM7           RCC_APB1ENR1_TIM7EN
 144:C:/Users/12522/STM32Cube/Repository/STM32Cube_FW_G4_V1.5.0/Drivers/STM32G4xx_HAL_Driver/Inc\stm32g4xx_ll_bus.h **** #define LL_APB1_GRP1_PERIPH_CRS            RCC_APB1ENR1_CRSEN
 145:C:/Users/12522/STM32Cube/Repository/STM32Cube_FW_G4_V1.5.0/Drivers/STM32G4xx_HAL_Driver/Inc\stm32g4xx_ll_bus.h **** #define LL_APB1_GRP1_PERIPH_RTCAPB         RCC_APB1ENR1_RTCAPBEN
 146:C:/Users/12522/STM32Cube/Repository/STM32Cube_FW_G4_V1.5.0/Drivers/STM32G4xx_HAL_Driver/Inc\stm32g4xx_ll_bus.h **** #define LL_APB1_GRP1_PERIPH_WWDG           RCC_APB1ENR1_WWDGEN
 147:C:/Users/12522/STM32Cube/Repository/STM32Cube_FW_G4_V1.5.0/Drivers/STM32G4xx_HAL_Driver/Inc\stm32g4xx_ll_bus.h **** #define LL_APB1_GRP1_PERIPH_SPI2           RCC_APB1ENR1_SPI2EN
 148:C:/Users/12522/STM32Cube/Repository/STM32Cube_FW_G4_V1.5.0/Drivers/STM32G4xx_HAL_Driver/Inc\stm32g4xx_ll_bus.h **** #define LL_APB1_GRP1_PERIPH_SPI3           RCC_APB1ENR1_SPI3EN
 149:C:/Users/12522/STM32Cube/Repository/STM32Cube_FW_G4_V1.5.0/Drivers/STM32G4xx_HAL_Driver/Inc\stm32g4xx_ll_bus.h **** #define LL_APB1_GRP1_PERIPH_USART2         RCC_APB1ENR1_USART2EN
 150:C:/Users/12522/STM32Cube/Repository/STM32Cube_FW_G4_V1.5.0/Drivers/STM32G4xx_HAL_Driver/Inc\stm32g4xx_ll_bus.h **** #define LL_APB1_GRP1_PERIPH_USART3         RCC_APB1ENR1_USART3EN
 151:C:/Users/12522/STM32Cube/Repository/STM32Cube_FW_G4_V1.5.0/Drivers/STM32G4xx_HAL_Driver/Inc\stm32g4xx_ll_bus.h **** #if defined(UART4)
 152:C:/Users/12522/STM32Cube/Repository/STM32Cube_FW_G4_V1.5.0/Drivers/STM32G4xx_HAL_Driver/Inc\stm32g4xx_ll_bus.h **** #define LL_APB1_GRP1_PERIPH_UART4          RCC_APB1ENR1_UART4EN
 153:C:/Users/12522/STM32Cube/Repository/STM32Cube_FW_G4_V1.5.0/Drivers/STM32G4xx_HAL_Driver/Inc\stm32g4xx_ll_bus.h **** #endif /* UART4 */
 154:C:/Users/12522/STM32Cube/Repository/STM32Cube_FW_G4_V1.5.0/Drivers/STM32G4xx_HAL_Driver/Inc\stm32g4xx_ll_bus.h **** #if defined(UART5)
 155:C:/Users/12522/STM32Cube/Repository/STM32Cube_FW_G4_V1.5.0/Drivers/STM32G4xx_HAL_Driver/Inc\stm32g4xx_ll_bus.h **** #define LL_APB1_GRP1_PERIPH_UART5          RCC_APB1ENR1_UART5EN
 156:C:/Users/12522/STM32Cube/Repository/STM32Cube_FW_G4_V1.5.0/Drivers/STM32G4xx_HAL_Driver/Inc\stm32g4xx_ll_bus.h **** #endif /* UART5 */
 157:C:/Users/12522/STM32Cube/Repository/STM32Cube_FW_G4_V1.5.0/Drivers/STM32G4xx_HAL_Driver/Inc\stm32g4xx_ll_bus.h **** #define LL_APB1_GRP1_PERIPH_I2C1           RCC_APB1ENR1_I2C1EN
 158:C:/Users/12522/STM32Cube/Repository/STM32Cube_FW_G4_V1.5.0/Drivers/STM32G4xx_HAL_Driver/Inc\stm32g4xx_ll_bus.h **** #define LL_APB1_GRP1_PERIPH_I2C2           RCC_APB1ENR1_I2C2EN
 159:C:/Users/12522/STM32Cube/Repository/STM32Cube_FW_G4_V1.5.0/Drivers/STM32G4xx_HAL_Driver/Inc\stm32g4xx_ll_bus.h **** #define LL_APB1_GRP1_PERIPH_USB            RCC_APB1ENR1_USBEN
 160:C:/Users/12522/STM32Cube/Repository/STM32Cube_FW_G4_V1.5.0/Drivers/STM32G4xx_HAL_Driver/Inc\stm32g4xx_ll_bus.h **** #if defined(FDCAN1)
 161:C:/Users/12522/STM32Cube/Repository/STM32Cube_FW_G4_V1.5.0/Drivers/STM32G4xx_HAL_Driver/Inc\stm32g4xx_ll_bus.h **** #define LL_APB1_GRP1_PERIPH_FDCAN          RCC_APB1ENR1_FDCANEN
 162:C:/Users/12522/STM32Cube/Repository/STM32Cube_FW_G4_V1.5.0/Drivers/STM32G4xx_HAL_Driver/Inc\stm32g4xx_ll_bus.h **** #endif /* FDCAN1 */
 163:C:/Users/12522/STM32Cube/Repository/STM32Cube_FW_G4_V1.5.0/Drivers/STM32G4xx_HAL_Driver/Inc\stm32g4xx_ll_bus.h **** #define LL_APB1_GRP1_PERIPH_PWR            RCC_APB1ENR1_PWREN
 164:C:/Users/12522/STM32Cube/Repository/STM32Cube_FW_G4_V1.5.0/Drivers/STM32G4xx_HAL_Driver/Inc\stm32g4xx_ll_bus.h **** #define LL_APB1_GRP1_PERIPH_I2C3           RCC_APB1ENR1_I2C3EN
 165:C:/Users/12522/STM32Cube/Repository/STM32Cube_FW_G4_V1.5.0/Drivers/STM32G4xx_HAL_Driver/Inc\stm32g4xx_ll_bus.h **** #define LL_APB1_GRP1_PERIPH_LPTIM1         RCC_APB1ENR1_LPTIM1EN
 166:C:/Users/12522/STM32Cube/Repository/STM32Cube_FW_G4_V1.5.0/Drivers/STM32G4xx_HAL_Driver/Inc\stm32g4xx_ll_bus.h **** /**
 167:C:/Users/12522/STM32Cube/Repository/STM32Cube_FW_G4_V1.5.0/Drivers/STM32G4xx_HAL_Driver/Inc\stm32g4xx_ll_bus.h ****   * @}
 168:C:/Users/12522/STM32Cube/Repository/STM32Cube_FW_G4_V1.5.0/Drivers/STM32G4xx_HAL_Driver/Inc\stm32g4xx_ll_bus.h ****   */
 169:C:/Users/12522/STM32Cube/Repository/STM32Cube_FW_G4_V1.5.0/Drivers/STM32G4xx_HAL_Driver/Inc\stm32g4xx_ll_bus.h **** 
 170:C:/Users/12522/STM32Cube/Repository/STM32Cube_FW_G4_V1.5.0/Drivers/STM32G4xx_HAL_Driver/Inc\stm32g4xx_ll_bus.h **** 
 171:C:/Users/12522/STM32Cube/Repository/STM32Cube_FW_G4_V1.5.0/Drivers/STM32G4xx_HAL_Driver/Inc\stm32g4xx_ll_bus.h **** /** @defgroup BUS_LL_EC_APB1_GRP2_PERIPH  APB1 GRP2 PERIPH
 172:C:/Users/12522/STM32Cube/Repository/STM32Cube_FW_G4_V1.5.0/Drivers/STM32G4xx_HAL_Driver/Inc\stm32g4xx_ll_bus.h ****   * @{
 173:C:/Users/12522/STM32Cube/Repository/STM32Cube_FW_G4_V1.5.0/Drivers/STM32G4xx_HAL_Driver/Inc\stm32g4xx_ll_bus.h ****   */
 174:C:/Users/12522/STM32Cube/Repository/STM32Cube_FW_G4_V1.5.0/Drivers/STM32G4xx_HAL_Driver/Inc\stm32g4xx_ll_bus.h **** #define LL_APB1_GRP2_PERIPH_ALL            0xFFFFFFFFU
 175:C:/Users/12522/STM32Cube/Repository/STM32Cube_FW_G4_V1.5.0/Drivers/STM32G4xx_HAL_Driver/Inc\stm32g4xx_ll_bus.h **** #define LL_APB1_GRP2_PERIPH_LPUART1        RCC_APB1ENR2_LPUART1EN
 176:C:/Users/12522/STM32Cube/Repository/STM32Cube_FW_G4_V1.5.0/Drivers/STM32G4xx_HAL_Driver/Inc\stm32g4xx_ll_bus.h **** #if defined(I2C4)
 177:C:/Users/12522/STM32Cube/Repository/STM32Cube_FW_G4_V1.5.0/Drivers/STM32G4xx_HAL_Driver/Inc\stm32g4xx_ll_bus.h **** #define LL_APB1_GRP2_PERIPH_I2C4           RCC_APB1ENR2_I2C4EN
 178:C:/Users/12522/STM32Cube/Repository/STM32Cube_FW_G4_V1.5.0/Drivers/STM32G4xx_HAL_Driver/Inc\stm32g4xx_ll_bus.h **** #endif /* I2C4 */
 179:C:/Users/12522/STM32Cube/Repository/STM32Cube_FW_G4_V1.5.0/Drivers/STM32G4xx_HAL_Driver/Inc\stm32g4xx_ll_bus.h **** #define LL_APB1_GRP2_PERIPH_UCPD1         RCC_APB1ENR2_UCPD1EN
 180:C:/Users/12522/STM32Cube/Repository/STM32Cube_FW_G4_V1.5.0/Drivers/STM32G4xx_HAL_Driver/Inc\stm32g4xx_ll_bus.h **** /**
 181:C:/Users/12522/STM32Cube/Repository/STM32Cube_FW_G4_V1.5.0/Drivers/STM32G4xx_HAL_Driver/Inc\stm32g4xx_ll_bus.h ****   * @}
 182:C:/Users/12522/STM32Cube/Repository/STM32Cube_FW_G4_V1.5.0/Drivers/STM32G4xx_HAL_Driver/Inc\stm32g4xx_ll_bus.h ****   */
 183:C:/Users/12522/STM32Cube/Repository/STM32Cube_FW_G4_V1.5.0/Drivers/STM32G4xx_HAL_Driver/Inc\stm32g4xx_ll_bus.h **** 
ARM GAS  F:\msys64\tmp\cc5aZRcQ.s 			page 6


 184:C:/Users/12522/STM32Cube/Repository/STM32Cube_FW_G4_V1.5.0/Drivers/STM32G4xx_HAL_Driver/Inc\stm32g4xx_ll_bus.h **** /** @defgroup BUS_LL_EC_APB2_GRP1_PERIPH  APB2 GRP1 PERIPH
 185:C:/Users/12522/STM32Cube/Repository/STM32Cube_FW_G4_V1.5.0/Drivers/STM32G4xx_HAL_Driver/Inc\stm32g4xx_ll_bus.h ****   * @{
 186:C:/Users/12522/STM32Cube/Repository/STM32Cube_FW_G4_V1.5.0/Drivers/STM32G4xx_HAL_Driver/Inc\stm32g4xx_ll_bus.h ****   */
 187:C:/Users/12522/STM32Cube/Repository/STM32Cube_FW_G4_V1.5.0/Drivers/STM32G4xx_HAL_Driver/Inc\stm32g4xx_ll_bus.h **** #define LL_APB2_GRP1_PERIPH_ALL            0xFFFFFFFFU
 188:C:/Users/12522/STM32Cube/Repository/STM32Cube_FW_G4_V1.5.0/Drivers/STM32G4xx_HAL_Driver/Inc\stm32g4xx_ll_bus.h **** #define LL_APB2_GRP1_PERIPH_SYSCFG         RCC_APB2ENR_SYSCFGEN
 189:C:/Users/12522/STM32Cube/Repository/STM32Cube_FW_G4_V1.5.0/Drivers/STM32G4xx_HAL_Driver/Inc\stm32g4xx_ll_bus.h **** #define LL_APB2_GRP1_PERIPH_TIM1           RCC_APB2ENR_TIM1EN
 190:C:/Users/12522/STM32Cube/Repository/STM32Cube_FW_G4_V1.5.0/Drivers/STM32G4xx_HAL_Driver/Inc\stm32g4xx_ll_bus.h **** #define LL_APB2_GRP1_PERIPH_SPI1           RCC_APB2ENR_SPI1EN
 191:C:/Users/12522/STM32Cube/Repository/STM32Cube_FW_G4_V1.5.0/Drivers/STM32G4xx_HAL_Driver/Inc\stm32g4xx_ll_bus.h **** #define LL_APB2_GRP1_PERIPH_TIM8           RCC_APB2ENR_TIM8EN
 192:C:/Users/12522/STM32Cube/Repository/STM32Cube_FW_G4_V1.5.0/Drivers/STM32G4xx_HAL_Driver/Inc\stm32g4xx_ll_bus.h **** #define LL_APB2_GRP1_PERIPH_USART1         RCC_APB2ENR_USART1EN
 193:C:/Users/12522/STM32Cube/Repository/STM32Cube_FW_G4_V1.5.0/Drivers/STM32G4xx_HAL_Driver/Inc\stm32g4xx_ll_bus.h **** #if defined(SPI4)
 194:C:/Users/12522/STM32Cube/Repository/STM32Cube_FW_G4_V1.5.0/Drivers/STM32G4xx_HAL_Driver/Inc\stm32g4xx_ll_bus.h **** #define LL_APB2_GRP1_PERIPH_SPI4           RCC_APB2ENR_SPI4EN
 195:C:/Users/12522/STM32Cube/Repository/STM32Cube_FW_G4_V1.5.0/Drivers/STM32G4xx_HAL_Driver/Inc\stm32g4xx_ll_bus.h **** #endif /* SPI4 */
 196:C:/Users/12522/STM32Cube/Repository/STM32Cube_FW_G4_V1.5.0/Drivers/STM32G4xx_HAL_Driver/Inc\stm32g4xx_ll_bus.h **** #define LL_APB2_GRP1_PERIPH_TIM15          RCC_APB2ENR_TIM15EN
 197:C:/Users/12522/STM32Cube/Repository/STM32Cube_FW_G4_V1.5.0/Drivers/STM32G4xx_HAL_Driver/Inc\stm32g4xx_ll_bus.h **** #define LL_APB2_GRP1_PERIPH_TIM16          RCC_APB2ENR_TIM16EN
 198:C:/Users/12522/STM32Cube/Repository/STM32Cube_FW_G4_V1.5.0/Drivers/STM32G4xx_HAL_Driver/Inc\stm32g4xx_ll_bus.h **** #define LL_APB2_GRP1_PERIPH_TIM17          RCC_APB2ENR_TIM17EN
 199:C:/Users/12522/STM32Cube/Repository/STM32Cube_FW_G4_V1.5.0/Drivers/STM32G4xx_HAL_Driver/Inc\stm32g4xx_ll_bus.h **** #if defined(TIM20)
 200:C:/Users/12522/STM32Cube/Repository/STM32Cube_FW_G4_V1.5.0/Drivers/STM32G4xx_HAL_Driver/Inc\stm32g4xx_ll_bus.h **** #define LL_APB2_GRP1_PERIPH_TIM20          RCC_APB2ENR_TIM20EN
 201:C:/Users/12522/STM32Cube/Repository/STM32Cube_FW_G4_V1.5.0/Drivers/STM32G4xx_HAL_Driver/Inc\stm32g4xx_ll_bus.h **** #endif /* TIM20 */
 202:C:/Users/12522/STM32Cube/Repository/STM32Cube_FW_G4_V1.5.0/Drivers/STM32G4xx_HAL_Driver/Inc\stm32g4xx_ll_bus.h **** #define LL_APB2_GRP1_PERIPH_SAI1           RCC_APB2ENR_SAI1EN
 203:C:/Users/12522/STM32Cube/Repository/STM32Cube_FW_G4_V1.5.0/Drivers/STM32G4xx_HAL_Driver/Inc\stm32g4xx_ll_bus.h **** #if defined(HRTIM1)
 204:C:/Users/12522/STM32Cube/Repository/STM32Cube_FW_G4_V1.5.0/Drivers/STM32G4xx_HAL_Driver/Inc\stm32g4xx_ll_bus.h **** #define LL_APB2_GRP1_PERIPH_HRTIM1         RCC_APB2ENR_HRTIM1EN
 205:C:/Users/12522/STM32Cube/Repository/STM32Cube_FW_G4_V1.5.0/Drivers/STM32G4xx_HAL_Driver/Inc\stm32g4xx_ll_bus.h **** #endif /* HRTIM1 */
 206:C:/Users/12522/STM32Cube/Repository/STM32Cube_FW_G4_V1.5.0/Drivers/STM32G4xx_HAL_Driver/Inc\stm32g4xx_ll_bus.h **** /**
 207:C:/Users/12522/STM32Cube/Repository/STM32Cube_FW_G4_V1.5.0/Drivers/STM32G4xx_HAL_Driver/Inc\stm32g4xx_ll_bus.h ****   * @}
 208:C:/Users/12522/STM32Cube/Repository/STM32Cube_FW_G4_V1.5.0/Drivers/STM32G4xx_HAL_Driver/Inc\stm32g4xx_ll_bus.h ****   */
 209:C:/Users/12522/STM32Cube/Repository/STM32Cube_FW_G4_V1.5.0/Drivers/STM32G4xx_HAL_Driver/Inc\stm32g4xx_ll_bus.h **** 
 210:C:/Users/12522/STM32Cube/Repository/STM32Cube_FW_G4_V1.5.0/Drivers/STM32G4xx_HAL_Driver/Inc\stm32g4xx_ll_bus.h **** /**
 211:C:/Users/12522/STM32Cube/Repository/STM32Cube_FW_G4_V1.5.0/Drivers/STM32G4xx_HAL_Driver/Inc\stm32g4xx_ll_bus.h ****   * @}
 212:C:/Users/12522/STM32Cube/Repository/STM32Cube_FW_G4_V1.5.0/Drivers/STM32G4xx_HAL_Driver/Inc\stm32g4xx_ll_bus.h ****   */
 213:C:/Users/12522/STM32Cube/Repository/STM32Cube_FW_G4_V1.5.0/Drivers/STM32G4xx_HAL_Driver/Inc\stm32g4xx_ll_bus.h **** 
 214:C:/Users/12522/STM32Cube/Repository/STM32Cube_FW_G4_V1.5.0/Drivers/STM32G4xx_HAL_Driver/Inc\stm32g4xx_ll_bus.h **** /* Exported macro ------------------------------------------------------------*/
 215:C:/Users/12522/STM32Cube/Repository/STM32Cube_FW_G4_V1.5.0/Drivers/STM32G4xx_HAL_Driver/Inc\stm32g4xx_ll_bus.h **** /* Exported functions --------------------------------------------------------*/
 216:C:/Users/12522/STM32Cube/Repository/STM32Cube_FW_G4_V1.5.0/Drivers/STM32G4xx_HAL_Driver/Inc\stm32g4xx_ll_bus.h **** /** @defgroup BUS_LL_Exported_Functions BUS Exported Functions
 217:C:/Users/12522/STM32Cube/Repository/STM32Cube_FW_G4_V1.5.0/Drivers/STM32G4xx_HAL_Driver/Inc\stm32g4xx_ll_bus.h ****   * @{
 218:C:/Users/12522/STM32Cube/Repository/STM32Cube_FW_G4_V1.5.0/Drivers/STM32G4xx_HAL_Driver/Inc\stm32g4xx_ll_bus.h ****   */
 219:C:/Users/12522/STM32Cube/Repository/STM32Cube_FW_G4_V1.5.0/Drivers/STM32G4xx_HAL_Driver/Inc\stm32g4xx_ll_bus.h **** 
 220:C:/Users/12522/STM32Cube/Repository/STM32Cube_FW_G4_V1.5.0/Drivers/STM32G4xx_HAL_Driver/Inc\stm32g4xx_ll_bus.h **** /** @defgroup BUS_LL_EF_AHB1 AHB1
 221:C:/Users/12522/STM32Cube/Repository/STM32Cube_FW_G4_V1.5.0/Drivers/STM32G4xx_HAL_Driver/Inc\stm32g4xx_ll_bus.h ****   * @{
 222:C:/Users/12522/STM32Cube/Repository/STM32Cube_FW_G4_V1.5.0/Drivers/STM32G4xx_HAL_Driver/Inc\stm32g4xx_ll_bus.h ****   */
 223:C:/Users/12522/STM32Cube/Repository/STM32Cube_FW_G4_V1.5.0/Drivers/STM32G4xx_HAL_Driver/Inc\stm32g4xx_ll_bus.h **** 
 224:C:/Users/12522/STM32Cube/Repository/STM32Cube_FW_G4_V1.5.0/Drivers/STM32G4xx_HAL_Driver/Inc\stm32g4xx_ll_bus.h **** /**
 225:C:/Users/12522/STM32Cube/Repository/STM32Cube_FW_G4_V1.5.0/Drivers/STM32G4xx_HAL_Driver/Inc\stm32g4xx_ll_bus.h ****   * @brief  Enable AHB1 peripherals clock.
 226:C:/Users/12522/STM32Cube/Repository/STM32Cube_FW_G4_V1.5.0/Drivers/STM32G4xx_HAL_Driver/Inc\stm32g4xx_ll_bus.h ****   * @rmtoll AHB1ENR      DMA1EN        LL_AHB1_GRP1_EnableClock\n
 227:C:/Users/12522/STM32Cube/Repository/STM32Cube_FW_G4_V1.5.0/Drivers/STM32G4xx_HAL_Driver/Inc\stm32g4xx_ll_bus.h ****   *         AHB1ENR      DMA2EN        LL_AHB1_GRP1_EnableClock\n
 228:C:/Users/12522/STM32Cube/Repository/STM32Cube_FW_G4_V1.5.0/Drivers/STM32G4xx_HAL_Driver/Inc\stm32g4xx_ll_bus.h ****   *         AHB1ENR      DMAMMUXEN     LL_AHB1_GRP1_EnableClock\n
 229:C:/Users/12522/STM32Cube/Repository/STM32Cube_FW_G4_V1.5.0/Drivers/STM32G4xx_HAL_Driver/Inc\stm32g4xx_ll_bus.h ****   *         AHB1ENR      CORDICEN      LL_AHB1_GRP1_EnableClock\n
 230:C:/Users/12522/STM32Cube/Repository/STM32Cube_FW_G4_V1.5.0/Drivers/STM32G4xx_HAL_Driver/Inc\stm32g4xx_ll_bus.h ****   *         AHB1ENR      FMACEN        LL_AHB1_GRP1_EnableClock\n
 231:C:/Users/12522/STM32Cube/Repository/STM32Cube_FW_G4_V1.5.0/Drivers/STM32G4xx_HAL_Driver/Inc\stm32g4xx_ll_bus.h ****   *         AHB1ENR      FLASHEN       LL_AHB1_GRP1_EnableClock\n
 232:C:/Users/12522/STM32Cube/Repository/STM32Cube_FW_G4_V1.5.0/Drivers/STM32G4xx_HAL_Driver/Inc\stm32g4xx_ll_bus.h ****   *         AHB1ENR      CRCEN         LL_AHB1_GRP1_EnableClock
 233:C:/Users/12522/STM32Cube/Repository/STM32Cube_FW_G4_V1.5.0/Drivers/STM32G4xx_HAL_Driver/Inc\stm32g4xx_ll_bus.h ****   * @param  Periphs This parameter can be a combination of the following values:
 234:C:/Users/12522/STM32Cube/Repository/STM32Cube_FW_G4_V1.5.0/Drivers/STM32G4xx_HAL_Driver/Inc\stm32g4xx_ll_bus.h ****   *         @arg @ref LL_AHB1_GRP1_PERIPH_DMA1
 235:C:/Users/12522/STM32Cube/Repository/STM32Cube_FW_G4_V1.5.0/Drivers/STM32G4xx_HAL_Driver/Inc\stm32g4xx_ll_bus.h ****   *         @arg @ref LL_AHB1_GRP1_PERIPH_DMA2
 236:C:/Users/12522/STM32Cube/Repository/STM32Cube_FW_G4_V1.5.0/Drivers/STM32G4xx_HAL_Driver/Inc\stm32g4xx_ll_bus.h ****   *         @arg @ref LL_AHB1_GRP1_PERIPH_DMAMUX1
 237:C:/Users/12522/STM32Cube/Repository/STM32Cube_FW_G4_V1.5.0/Drivers/STM32G4xx_HAL_Driver/Inc\stm32g4xx_ll_bus.h ****   *         @arg @ref LL_AHB1_GRP1_PERIPH_CORDIC
 238:C:/Users/12522/STM32Cube/Repository/STM32Cube_FW_G4_V1.5.0/Drivers/STM32G4xx_HAL_Driver/Inc\stm32g4xx_ll_bus.h ****   *         @arg @ref LL_AHB1_GRP1_PERIPH_FMAC
 239:C:/Users/12522/STM32Cube/Repository/STM32Cube_FW_G4_V1.5.0/Drivers/STM32G4xx_HAL_Driver/Inc\stm32g4xx_ll_bus.h ****   *         @arg @ref LL_AHB1_GRP1_PERIPH_FLASH
 240:C:/Users/12522/STM32Cube/Repository/STM32Cube_FW_G4_V1.5.0/Drivers/STM32G4xx_HAL_Driver/Inc\stm32g4xx_ll_bus.h ****   *         @arg @ref LL_AHB1_GRP1_PERIPH_CRC
ARM GAS  F:\msys64\tmp\cc5aZRcQ.s 			page 7


 241:C:/Users/12522/STM32Cube/Repository/STM32Cube_FW_G4_V1.5.0/Drivers/STM32G4xx_HAL_Driver/Inc\stm32g4xx_ll_bus.h ****   * @retval None
 242:C:/Users/12522/STM32Cube/Repository/STM32Cube_FW_G4_V1.5.0/Drivers/STM32G4xx_HAL_Driver/Inc\stm32g4xx_ll_bus.h ****   */
 243:C:/Users/12522/STM32Cube/Repository/STM32Cube_FW_G4_V1.5.0/Drivers/STM32G4xx_HAL_Driver/Inc\stm32g4xx_ll_bus.h **** __STATIC_INLINE void LL_AHB1_GRP1_EnableClock(uint32_t Periphs)
 244:C:/Users/12522/STM32Cube/Repository/STM32Cube_FW_G4_V1.5.0/Drivers/STM32G4xx_HAL_Driver/Inc\stm32g4xx_ll_bus.h **** {
 245:C:/Users/12522/STM32Cube/Repository/STM32Cube_FW_G4_V1.5.0/Drivers/STM32G4xx_HAL_Driver/Inc\stm32g4xx_ll_bus.h ****   __IO uint32_t tmpreg;
 246:C:/Users/12522/STM32Cube/Repository/STM32Cube_FW_G4_V1.5.0/Drivers/STM32G4xx_HAL_Driver/Inc\stm32g4xx_ll_bus.h ****   SET_BIT(RCC->AHB1ENR, Periphs);
 247:C:/Users/12522/STM32Cube/Repository/STM32Cube_FW_G4_V1.5.0/Drivers/STM32G4xx_HAL_Driver/Inc\stm32g4xx_ll_bus.h ****   /* Delay after an RCC peripheral clock enabling */
 248:C:/Users/12522/STM32Cube/Repository/STM32Cube_FW_G4_V1.5.0/Drivers/STM32G4xx_HAL_Driver/Inc\stm32g4xx_ll_bus.h ****   tmpreg = READ_BIT(RCC->AHB1ENR, Periphs);
 249:C:/Users/12522/STM32Cube/Repository/STM32Cube_FW_G4_V1.5.0/Drivers/STM32G4xx_HAL_Driver/Inc\stm32g4xx_ll_bus.h ****   (void)tmpreg;
 250:C:/Users/12522/STM32Cube/Repository/STM32Cube_FW_G4_V1.5.0/Drivers/STM32G4xx_HAL_Driver/Inc\stm32g4xx_ll_bus.h **** }
 251:C:/Users/12522/STM32Cube/Repository/STM32Cube_FW_G4_V1.5.0/Drivers/STM32G4xx_HAL_Driver/Inc\stm32g4xx_ll_bus.h **** 
 252:C:/Users/12522/STM32Cube/Repository/STM32Cube_FW_G4_V1.5.0/Drivers/STM32G4xx_HAL_Driver/Inc\stm32g4xx_ll_bus.h **** /**
 253:C:/Users/12522/STM32Cube/Repository/STM32Cube_FW_G4_V1.5.0/Drivers/STM32G4xx_HAL_Driver/Inc\stm32g4xx_ll_bus.h ****   * @brief  Check if AHB1 peripheral clock is enabled or not
 254:C:/Users/12522/STM32Cube/Repository/STM32Cube_FW_G4_V1.5.0/Drivers/STM32G4xx_HAL_Driver/Inc\stm32g4xx_ll_bus.h ****   * @rmtoll AHB1ENR      DMA1EN        LL_AHB1_GRP1_IsEnabledClock\n
 255:C:/Users/12522/STM32Cube/Repository/STM32Cube_FW_G4_V1.5.0/Drivers/STM32G4xx_HAL_Driver/Inc\stm32g4xx_ll_bus.h ****   *         AHB1ENR      DMA2EN        LL_AHB1_GRP1_IsEnabledClock\n
 256:C:/Users/12522/STM32Cube/Repository/STM32Cube_FW_G4_V1.5.0/Drivers/STM32G4xx_HAL_Driver/Inc\stm32g4xx_ll_bus.h ****   *         AHB1ENR      DMAMUXEN      LL_AHB1_GRP1_IsEnabledClock\n
 257:C:/Users/12522/STM32Cube/Repository/STM32Cube_FW_G4_V1.5.0/Drivers/STM32G4xx_HAL_Driver/Inc\stm32g4xx_ll_bus.h ****   *         AHB1ENR      CORDICEN      LL_AHB1_GRP1_IsEnabledClock\n
 258:C:/Users/12522/STM32Cube/Repository/STM32Cube_FW_G4_V1.5.0/Drivers/STM32G4xx_HAL_Driver/Inc\stm32g4xx_ll_bus.h ****   *         AHB1ENR      FMACEN        LL_AHB1_GRP1_IsEnabledClock\n
 259:C:/Users/12522/STM32Cube/Repository/STM32Cube_FW_G4_V1.5.0/Drivers/STM32G4xx_HAL_Driver/Inc\stm32g4xx_ll_bus.h ****   *         AHB1ENR      FLASHEN       LL_AHB1_GRP1_IsEnabledClock\n
 260:C:/Users/12522/STM32Cube/Repository/STM32Cube_FW_G4_V1.5.0/Drivers/STM32G4xx_HAL_Driver/Inc\stm32g4xx_ll_bus.h ****   *         AHB1ENR      CRCEN         LL_AHB1_GRP1_IsEnabledClock
 261:C:/Users/12522/STM32Cube/Repository/STM32Cube_FW_G4_V1.5.0/Drivers/STM32G4xx_HAL_Driver/Inc\stm32g4xx_ll_bus.h ****   * @param  Periphs This parameter can be a combination of the following values:
 262:C:/Users/12522/STM32Cube/Repository/STM32Cube_FW_G4_V1.5.0/Drivers/STM32G4xx_HAL_Driver/Inc\stm32g4xx_ll_bus.h ****   *         @arg @ref LL_AHB1_GRP1_PERIPH_DMA1
 263:C:/Users/12522/STM32Cube/Repository/STM32Cube_FW_G4_V1.5.0/Drivers/STM32G4xx_HAL_Driver/Inc\stm32g4xx_ll_bus.h ****   *         @arg @ref LL_AHB1_GRP1_PERIPH_DMA2
 264:C:/Users/12522/STM32Cube/Repository/STM32Cube_FW_G4_V1.5.0/Drivers/STM32G4xx_HAL_Driver/Inc\stm32g4xx_ll_bus.h ****   *         @arg @ref LL_AHB1_GRP1_PERIPH_DMAMUX1
 265:C:/Users/12522/STM32Cube/Repository/STM32Cube_FW_G4_V1.5.0/Drivers/STM32G4xx_HAL_Driver/Inc\stm32g4xx_ll_bus.h ****   *         @arg @ref LL_AHB1_GRP1_PERIPH_CORDIC
 266:C:/Users/12522/STM32Cube/Repository/STM32Cube_FW_G4_V1.5.0/Drivers/STM32G4xx_HAL_Driver/Inc\stm32g4xx_ll_bus.h ****   *         @arg @ref LL_AHB1_GRP1_PERIPH_FMAC
 267:C:/Users/12522/STM32Cube/Repository/STM32Cube_FW_G4_V1.5.0/Drivers/STM32G4xx_HAL_Driver/Inc\stm32g4xx_ll_bus.h ****   *         @arg @ref LL_AHB1_GRP1_PERIPH_FLASH
 268:C:/Users/12522/STM32Cube/Repository/STM32Cube_FW_G4_V1.5.0/Drivers/STM32G4xx_HAL_Driver/Inc\stm32g4xx_ll_bus.h ****   *         @arg @ref LL_AHB1_GRP1_PERIPH_CRC
 269:C:/Users/12522/STM32Cube/Repository/STM32Cube_FW_G4_V1.5.0/Drivers/STM32G4xx_HAL_Driver/Inc\stm32g4xx_ll_bus.h ****   * @retval State of Periphs (1 or 0).
 270:C:/Users/12522/STM32Cube/Repository/STM32Cube_FW_G4_V1.5.0/Drivers/STM32G4xx_HAL_Driver/Inc\stm32g4xx_ll_bus.h ****   */
 271:C:/Users/12522/STM32Cube/Repository/STM32Cube_FW_G4_V1.5.0/Drivers/STM32G4xx_HAL_Driver/Inc\stm32g4xx_ll_bus.h **** __STATIC_INLINE uint32_t LL_AHB1_GRP1_IsEnabledClock(uint32_t Periphs)
 272:C:/Users/12522/STM32Cube/Repository/STM32Cube_FW_G4_V1.5.0/Drivers/STM32G4xx_HAL_Driver/Inc\stm32g4xx_ll_bus.h **** {
 273:C:/Users/12522/STM32Cube/Repository/STM32Cube_FW_G4_V1.5.0/Drivers/STM32G4xx_HAL_Driver/Inc\stm32g4xx_ll_bus.h ****   return ((READ_BIT(RCC->AHB1ENR, Periphs) == Periphs) ? 1UL : 0UL);
 274:C:/Users/12522/STM32Cube/Repository/STM32Cube_FW_G4_V1.5.0/Drivers/STM32G4xx_HAL_Driver/Inc\stm32g4xx_ll_bus.h **** }
 275:C:/Users/12522/STM32Cube/Repository/STM32Cube_FW_G4_V1.5.0/Drivers/STM32G4xx_HAL_Driver/Inc\stm32g4xx_ll_bus.h **** 
 276:C:/Users/12522/STM32Cube/Repository/STM32Cube_FW_G4_V1.5.0/Drivers/STM32G4xx_HAL_Driver/Inc\stm32g4xx_ll_bus.h **** /**
 277:C:/Users/12522/STM32Cube/Repository/STM32Cube_FW_G4_V1.5.0/Drivers/STM32G4xx_HAL_Driver/Inc\stm32g4xx_ll_bus.h ****   * @brief  Disable AHB1 peripherals clock.
 278:C:/Users/12522/STM32Cube/Repository/STM32Cube_FW_G4_V1.5.0/Drivers/STM32G4xx_HAL_Driver/Inc\stm32g4xx_ll_bus.h ****   * @rmtoll AHB1ENR      DMA1EN        LL_AHB1_GRP1_DisableClock\n
 279:C:/Users/12522/STM32Cube/Repository/STM32Cube_FW_G4_V1.5.0/Drivers/STM32G4xx_HAL_Driver/Inc\stm32g4xx_ll_bus.h ****   *         AHB1ENR      DMA2EN        LL_AHB1_GRP1_DisableClock\n
 280:C:/Users/12522/STM32Cube/Repository/STM32Cube_FW_G4_V1.5.0/Drivers/STM32G4xx_HAL_Driver/Inc\stm32g4xx_ll_bus.h ****   *         AHB1ENR      DMAMUXEN      LL_AHB1_GRP1_DisableClock\n
 281:C:/Users/12522/STM32Cube/Repository/STM32Cube_FW_G4_V1.5.0/Drivers/STM32G4xx_HAL_Driver/Inc\stm32g4xx_ll_bus.h ****   *         AHB1ENR      CORDICEN      LL_AHB1_GRP1_DisableClock\n
 282:C:/Users/12522/STM32Cube/Repository/STM32Cube_FW_G4_V1.5.0/Drivers/STM32G4xx_HAL_Driver/Inc\stm32g4xx_ll_bus.h ****   *         AHB1ENR      FMACEN        LL_AHB1_GRP1_DisableClock\n
 283:C:/Users/12522/STM32Cube/Repository/STM32Cube_FW_G4_V1.5.0/Drivers/STM32G4xx_HAL_Driver/Inc\stm32g4xx_ll_bus.h ****   *         AHB1ENR      FLASHEN       LL_AHB1_GRP1_DisableClock\n
 284:C:/Users/12522/STM32Cube/Repository/STM32Cube_FW_G4_V1.5.0/Drivers/STM32G4xx_HAL_Driver/Inc\stm32g4xx_ll_bus.h ****   *         AHB1ENR      CRCEN         LL_AHB1_GRP1_DisableClock
 285:C:/Users/12522/STM32Cube/Repository/STM32Cube_FW_G4_V1.5.0/Drivers/STM32G4xx_HAL_Driver/Inc\stm32g4xx_ll_bus.h ****   * @param  Periphs This parameter can be a combination of the following values:
 286:C:/Users/12522/STM32Cube/Repository/STM32Cube_FW_G4_V1.5.0/Drivers/STM32G4xx_HAL_Driver/Inc\stm32g4xx_ll_bus.h ****   *         @arg @ref LL_AHB1_GRP1_PERIPH_DMA1
 287:C:/Users/12522/STM32Cube/Repository/STM32Cube_FW_G4_V1.5.0/Drivers/STM32G4xx_HAL_Driver/Inc\stm32g4xx_ll_bus.h ****   *         @arg @ref LL_AHB1_GRP1_PERIPH_DMA2
 288:C:/Users/12522/STM32Cube/Repository/STM32Cube_FW_G4_V1.5.0/Drivers/STM32G4xx_HAL_Driver/Inc\stm32g4xx_ll_bus.h ****   *         @arg @ref LL_AHB1_GRP1_PERIPH_DMAMUX1
 289:C:/Users/12522/STM32Cube/Repository/STM32Cube_FW_G4_V1.5.0/Drivers/STM32G4xx_HAL_Driver/Inc\stm32g4xx_ll_bus.h ****   *         @arg @ref LL_AHB1_GRP1_PERIPH_CORDIC
 290:C:/Users/12522/STM32Cube/Repository/STM32Cube_FW_G4_V1.5.0/Drivers/STM32G4xx_HAL_Driver/Inc\stm32g4xx_ll_bus.h ****   *         @arg @ref LL_AHB1_GRP1_PERIPH_FMAC
 291:C:/Users/12522/STM32Cube/Repository/STM32Cube_FW_G4_V1.5.0/Drivers/STM32G4xx_HAL_Driver/Inc\stm32g4xx_ll_bus.h ****   *         @arg @ref LL_AHB1_GRP1_PERIPH_FLASH
 292:C:/Users/12522/STM32Cube/Repository/STM32Cube_FW_G4_V1.5.0/Drivers/STM32G4xx_HAL_Driver/Inc\stm32g4xx_ll_bus.h ****   *         @arg @ref LL_AHB1_GRP1_PERIPH_CRC
 293:C:/Users/12522/STM32Cube/Repository/STM32Cube_FW_G4_V1.5.0/Drivers/STM32G4xx_HAL_Driver/Inc\stm32g4xx_ll_bus.h ****   * @retval None
 294:C:/Users/12522/STM32Cube/Repository/STM32Cube_FW_G4_V1.5.0/Drivers/STM32G4xx_HAL_Driver/Inc\stm32g4xx_ll_bus.h ****   */
 295:C:/Users/12522/STM32Cube/Repository/STM32Cube_FW_G4_V1.5.0/Drivers/STM32G4xx_HAL_Driver/Inc\stm32g4xx_ll_bus.h **** __STATIC_INLINE void LL_AHB1_GRP1_DisableClock(uint32_t Periphs)
 296:C:/Users/12522/STM32Cube/Repository/STM32Cube_FW_G4_V1.5.0/Drivers/STM32G4xx_HAL_Driver/Inc\stm32g4xx_ll_bus.h **** {
 297:C:/Users/12522/STM32Cube/Repository/STM32Cube_FW_G4_V1.5.0/Drivers/STM32G4xx_HAL_Driver/Inc\stm32g4xx_ll_bus.h ****   CLEAR_BIT(RCC->AHB1ENR, Periphs);
ARM GAS  F:\msys64\tmp\cc5aZRcQ.s 			page 8


 298:C:/Users/12522/STM32Cube/Repository/STM32Cube_FW_G4_V1.5.0/Drivers/STM32G4xx_HAL_Driver/Inc\stm32g4xx_ll_bus.h **** }
 299:C:/Users/12522/STM32Cube/Repository/STM32Cube_FW_G4_V1.5.0/Drivers/STM32G4xx_HAL_Driver/Inc\stm32g4xx_ll_bus.h **** 
 300:C:/Users/12522/STM32Cube/Repository/STM32Cube_FW_G4_V1.5.0/Drivers/STM32G4xx_HAL_Driver/Inc\stm32g4xx_ll_bus.h **** /**
 301:C:/Users/12522/STM32Cube/Repository/STM32Cube_FW_G4_V1.5.0/Drivers/STM32G4xx_HAL_Driver/Inc\stm32g4xx_ll_bus.h ****   * @brief  Force AHB1 peripherals reset.
 302:C:/Users/12522/STM32Cube/Repository/STM32Cube_FW_G4_V1.5.0/Drivers/STM32G4xx_HAL_Driver/Inc\stm32g4xx_ll_bus.h ****   * @rmtoll AHB1RSTR     DMA1RST       LL_AHB1_GRP1_ForceReset\n
 303:C:/Users/12522/STM32Cube/Repository/STM32Cube_FW_G4_V1.5.0/Drivers/STM32G4xx_HAL_Driver/Inc\stm32g4xx_ll_bus.h ****   *         AHB1RSTR     DMA2RST       LL_AHB1_GRP1_ForceReset\n
 304:C:/Users/12522/STM32Cube/Repository/STM32Cube_FW_G4_V1.5.0/Drivers/STM32G4xx_HAL_Driver/Inc\stm32g4xx_ll_bus.h ****   *         AHB1RSTR     DMAMUXRST     LL_AHB1_GRP1_ForceReset\n
 305:C:/Users/12522/STM32Cube/Repository/STM32Cube_FW_G4_V1.5.0/Drivers/STM32G4xx_HAL_Driver/Inc\stm32g4xx_ll_bus.h ****   *         AHB1RSTR     CORDICRST     LL_AHB1_GRP1_ForceReset\n
 306:C:/Users/12522/STM32Cube/Repository/STM32Cube_FW_G4_V1.5.0/Drivers/STM32G4xx_HAL_Driver/Inc\stm32g4xx_ll_bus.h ****   *         AHB1RSTR     FMACRST       LL_AHB1_GRP1_ForceReset\n
 307:C:/Users/12522/STM32Cube/Repository/STM32Cube_FW_G4_V1.5.0/Drivers/STM32G4xx_HAL_Driver/Inc\stm32g4xx_ll_bus.h ****   *         AHB1RSTR     FLASHRST      LL_AHB1_GRP1_ForceReset\n
 308:C:/Users/12522/STM32Cube/Repository/STM32Cube_FW_G4_V1.5.0/Drivers/STM32G4xx_HAL_Driver/Inc\stm32g4xx_ll_bus.h ****   *         AHB1RSTR     CRCRST        LL_AHB1_GRP1_ForceReset
 309:C:/Users/12522/STM32Cube/Repository/STM32Cube_FW_G4_V1.5.0/Drivers/STM32G4xx_HAL_Driver/Inc\stm32g4xx_ll_bus.h ****   * @param  Periphs This parameter can be a combination of the following values:
 310:C:/Users/12522/STM32Cube/Repository/STM32Cube_FW_G4_V1.5.0/Drivers/STM32G4xx_HAL_Driver/Inc\stm32g4xx_ll_bus.h ****   *         @arg @ref LL_AHB1_GRP1_PERIPH_ALL
 311:C:/Users/12522/STM32Cube/Repository/STM32Cube_FW_G4_V1.5.0/Drivers/STM32G4xx_HAL_Driver/Inc\stm32g4xx_ll_bus.h ****   *         @arg @ref LL_AHB1_GRP1_PERIPH_DMA1
 312:C:/Users/12522/STM32Cube/Repository/STM32Cube_FW_G4_V1.5.0/Drivers/STM32G4xx_HAL_Driver/Inc\stm32g4xx_ll_bus.h ****   *         @arg @ref LL_AHB1_GRP1_PERIPH_DMA2
 313:C:/Users/12522/STM32Cube/Repository/STM32Cube_FW_G4_V1.5.0/Drivers/STM32G4xx_HAL_Driver/Inc\stm32g4xx_ll_bus.h ****   *         @arg @ref LL_AHB1_GRP1_PERIPH_DMAMUX1
 314:C:/Users/12522/STM32Cube/Repository/STM32Cube_FW_G4_V1.5.0/Drivers/STM32G4xx_HAL_Driver/Inc\stm32g4xx_ll_bus.h ****   *         @arg @ref LL_AHB1_GRP1_PERIPH_CORDIC
 315:C:/Users/12522/STM32Cube/Repository/STM32Cube_FW_G4_V1.5.0/Drivers/STM32G4xx_HAL_Driver/Inc\stm32g4xx_ll_bus.h ****   *         @arg @ref LL_AHB1_GRP1_PERIPH_FMAC
 316:C:/Users/12522/STM32Cube/Repository/STM32Cube_FW_G4_V1.5.0/Drivers/STM32G4xx_HAL_Driver/Inc\stm32g4xx_ll_bus.h ****   *         @arg @ref LL_AHB1_GRP1_PERIPH_FLASH
 317:C:/Users/12522/STM32Cube/Repository/STM32Cube_FW_G4_V1.5.0/Drivers/STM32G4xx_HAL_Driver/Inc\stm32g4xx_ll_bus.h ****   *         @arg @ref LL_AHB1_GRP1_PERIPH_CRC
 318:C:/Users/12522/STM32Cube/Repository/STM32Cube_FW_G4_V1.5.0/Drivers/STM32G4xx_HAL_Driver/Inc\stm32g4xx_ll_bus.h ****   * @retval None
 319:C:/Users/12522/STM32Cube/Repository/STM32Cube_FW_G4_V1.5.0/Drivers/STM32G4xx_HAL_Driver/Inc\stm32g4xx_ll_bus.h ****   */
 320:C:/Users/12522/STM32Cube/Repository/STM32Cube_FW_G4_V1.5.0/Drivers/STM32G4xx_HAL_Driver/Inc\stm32g4xx_ll_bus.h **** __STATIC_INLINE void LL_AHB1_GRP1_ForceReset(uint32_t Periphs)
 321:C:/Users/12522/STM32Cube/Repository/STM32Cube_FW_G4_V1.5.0/Drivers/STM32G4xx_HAL_Driver/Inc\stm32g4xx_ll_bus.h **** {
 322:C:/Users/12522/STM32Cube/Repository/STM32Cube_FW_G4_V1.5.0/Drivers/STM32G4xx_HAL_Driver/Inc\stm32g4xx_ll_bus.h ****   SET_BIT(RCC->AHB1RSTR, Periphs);
 323:C:/Users/12522/STM32Cube/Repository/STM32Cube_FW_G4_V1.5.0/Drivers/STM32G4xx_HAL_Driver/Inc\stm32g4xx_ll_bus.h **** }
 324:C:/Users/12522/STM32Cube/Repository/STM32Cube_FW_G4_V1.5.0/Drivers/STM32G4xx_HAL_Driver/Inc\stm32g4xx_ll_bus.h **** 
 325:C:/Users/12522/STM32Cube/Repository/STM32Cube_FW_G4_V1.5.0/Drivers/STM32G4xx_HAL_Driver/Inc\stm32g4xx_ll_bus.h **** /**
 326:C:/Users/12522/STM32Cube/Repository/STM32Cube_FW_G4_V1.5.0/Drivers/STM32G4xx_HAL_Driver/Inc\stm32g4xx_ll_bus.h ****   * @brief  Release AHB1 peripherals reset.
 327:C:/Users/12522/STM32Cube/Repository/STM32Cube_FW_G4_V1.5.0/Drivers/STM32G4xx_HAL_Driver/Inc\stm32g4xx_ll_bus.h ****   * @rmtoll AHB1RSTR     DMA1RST       LL_AHB1_GRP1_ReleaseReset\n
 328:C:/Users/12522/STM32Cube/Repository/STM32Cube_FW_G4_V1.5.0/Drivers/STM32G4xx_HAL_Driver/Inc\stm32g4xx_ll_bus.h ****   *         AHB1RSTR     DMA2RST       LL_AHB1_GRP1_ReleaseReset\n
 329:C:/Users/12522/STM32Cube/Repository/STM32Cube_FW_G4_V1.5.0/Drivers/STM32G4xx_HAL_Driver/Inc\stm32g4xx_ll_bus.h ****   *         AHB1RSTR     DMAMUXRST     LL_AHB1_GRP1_ReleaseReset\n
 330:C:/Users/12522/STM32Cube/Repository/STM32Cube_FW_G4_V1.5.0/Drivers/STM32G4xx_HAL_Driver/Inc\stm32g4xx_ll_bus.h ****   *         AHB1RSTR     CORDICRST     LL_AHB1_GRP1_ReleaseReset\n
 331:C:/Users/12522/STM32Cube/Repository/STM32Cube_FW_G4_V1.5.0/Drivers/STM32G4xx_HAL_Driver/Inc\stm32g4xx_ll_bus.h ****   *         AHB1RSTR     FMACRST       LL_AHB1_GRP1_ReleaseReset\n
 332:C:/Users/12522/STM32Cube/Repository/STM32Cube_FW_G4_V1.5.0/Drivers/STM32G4xx_HAL_Driver/Inc\stm32g4xx_ll_bus.h ****   *         AHB1RSTR     FLASHRST      LL_AHB1_GRP1_ReleaseReset\n
 333:C:/Users/12522/STM32Cube/Repository/STM32Cube_FW_G4_V1.5.0/Drivers/STM32G4xx_HAL_Driver/Inc\stm32g4xx_ll_bus.h ****   *         AHB1RSTR     CRCRST        LL_AHB1_GRP1_ReleaseReset
 334:C:/Users/12522/STM32Cube/Repository/STM32Cube_FW_G4_V1.5.0/Drivers/STM32G4xx_HAL_Driver/Inc\stm32g4xx_ll_bus.h ****   * @param  Periphs This parameter can be a combination of the following values:
 335:C:/Users/12522/STM32Cube/Repository/STM32Cube_FW_G4_V1.5.0/Drivers/STM32G4xx_HAL_Driver/Inc\stm32g4xx_ll_bus.h ****   *         @arg @ref LL_AHB1_GRP1_PERIPH_ALL
 336:C:/Users/12522/STM32Cube/Repository/STM32Cube_FW_G4_V1.5.0/Drivers/STM32G4xx_HAL_Driver/Inc\stm32g4xx_ll_bus.h ****   *         @arg @ref LL_AHB1_GRP1_PERIPH_DMA1
 337:C:/Users/12522/STM32Cube/Repository/STM32Cube_FW_G4_V1.5.0/Drivers/STM32G4xx_HAL_Driver/Inc\stm32g4xx_ll_bus.h ****   *         @arg @ref LL_AHB1_GRP1_PERIPH_DMA2
 338:C:/Users/12522/STM32Cube/Repository/STM32Cube_FW_G4_V1.5.0/Drivers/STM32G4xx_HAL_Driver/Inc\stm32g4xx_ll_bus.h ****   *         @arg @ref LL_AHB1_GRP1_PERIPH_DMAMUX1
 339:C:/Users/12522/STM32Cube/Repository/STM32Cube_FW_G4_V1.5.0/Drivers/STM32G4xx_HAL_Driver/Inc\stm32g4xx_ll_bus.h ****   *         @arg @ref LL_AHB1_GRP1_PERIPH_CORDIC
 340:C:/Users/12522/STM32Cube/Repository/STM32Cube_FW_G4_V1.5.0/Drivers/STM32G4xx_HAL_Driver/Inc\stm32g4xx_ll_bus.h ****   *         @arg @ref LL_AHB1_GRP1_PERIPH_FMAC
 341:C:/Users/12522/STM32Cube/Repository/STM32Cube_FW_G4_V1.5.0/Drivers/STM32G4xx_HAL_Driver/Inc\stm32g4xx_ll_bus.h ****   *         @arg @ref LL_AHB1_GRP1_PERIPH_FLASH
 342:C:/Users/12522/STM32Cube/Repository/STM32Cube_FW_G4_V1.5.0/Drivers/STM32G4xx_HAL_Driver/Inc\stm32g4xx_ll_bus.h ****   *         @arg @ref LL_AHB1_GRP1_PERIPH_CRC
 343:C:/Users/12522/STM32Cube/Repository/STM32Cube_FW_G4_V1.5.0/Drivers/STM32G4xx_HAL_Driver/Inc\stm32g4xx_ll_bus.h ****   * @retval None
 344:C:/Users/12522/STM32Cube/Repository/STM32Cube_FW_G4_V1.5.0/Drivers/STM32G4xx_HAL_Driver/Inc\stm32g4xx_ll_bus.h ****   */
 345:C:/Users/12522/STM32Cube/Repository/STM32Cube_FW_G4_V1.5.0/Drivers/STM32G4xx_HAL_Driver/Inc\stm32g4xx_ll_bus.h **** __STATIC_INLINE void LL_AHB1_GRP1_ReleaseReset(uint32_t Periphs)
 346:C:/Users/12522/STM32Cube/Repository/STM32Cube_FW_G4_V1.5.0/Drivers/STM32G4xx_HAL_Driver/Inc\stm32g4xx_ll_bus.h **** {
 347:C:/Users/12522/STM32Cube/Repository/STM32Cube_FW_G4_V1.5.0/Drivers/STM32G4xx_HAL_Driver/Inc\stm32g4xx_ll_bus.h ****   CLEAR_BIT(RCC->AHB1RSTR, Periphs);
 348:C:/Users/12522/STM32Cube/Repository/STM32Cube_FW_G4_V1.5.0/Drivers/STM32G4xx_HAL_Driver/Inc\stm32g4xx_ll_bus.h **** }
 349:C:/Users/12522/STM32Cube/Repository/STM32Cube_FW_G4_V1.5.0/Drivers/STM32G4xx_HAL_Driver/Inc\stm32g4xx_ll_bus.h **** 
 350:C:/Users/12522/STM32Cube/Repository/STM32Cube_FW_G4_V1.5.0/Drivers/STM32G4xx_HAL_Driver/Inc\stm32g4xx_ll_bus.h **** /**
 351:C:/Users/12522/STM32Cube/Repository/STM32Cube_FW_G4_V1.5.0/Drivers/STM32G4xx_HAL_Driver/Inc\stm32g4xx_ll_bus.h ****   * @brief  Enable AHB1 peripheral clocks in Sleep and Stop modes
 352:C:/Users/12522/STM32Cube/Repository/STM32Cube_FW_G4_V1.5.0/Drivers/STM32G4xx_HAL_Driver/Inc\stm32g4xx_ll_bus.h ****   * @rmtoll AHB1SMENR    DMA1SMEN      LL_AHB1_GRP1_EnableClockStopSleep\n
 353:C:/Users/12522/STM32Cube/Repository/STM32Cube_FW_G4_V1.5.0/Drivers/STM32G4xx_HAL_Driver/Inc\stm32g4xx_ll_bus.h ****   *         AHB1SMENR    DMA2SMEN      LL_AHB1_GRP1_EnableClockStopSleep\n
 354:C:/Users/12522/STM32Cube/Repository/STM32Cube_FW_G4_V1.5.0/Drivers/STM32G4xx_HAL_Driver/Inc\stm32g4xx_ll_bus.h ****   *         AHB1SMENR    DMAMUXSMEN    LL_AHB1_GRP1_EnableClockStopSleep\n
ARM GAS  F:\msys64\tmp\cc5aZRcQ.s 			page 9


 355:C:/Users/12522/STM32Cube/Repository/STM32Cube_FW_G4_V1.5.0/Drivers/STM32G4xx_HAL_Driver/Inc\stm32g4xx_ll_bus.h ****   *         AHB1SMENR    CORDICSMEN    LL_AHB1_GRP1_EnableClockStopSleep\n
 356:C:/Users/12522/STM32Cube/Repository/STM32Cube_FW_G4_V1.5.0/Drivers/STM32G4xx_HAL_Driver/Inc\stm32g4xx_ll_bus.h ****   *         AHB1SMENR    FMACSMEN      LL_AHB1_GRP1_EnableClockStopSleep\n
 357:C:/Users/12522/STM32Cube/Repository/STM32Cube_FW_G4_V1.5.0/Drivers/STM32G4xx_HAL_Driver/Inc\stm32g4xx_ll_bus.h ****   *         AHB1SMENR    FLASHSMEN     LL_AHB1_GRP1_EnableClockStopSleep\n
 358:C:/Users/12522/STM32Cube/Repository/STM32Cube_FW_G4_V1.5.0/Drivers/STM32G4xx_HAL_Driver/Inc\stm32g4xx_ll_bus.h ****   *         AHB1SMENR    SRAM1SMEN     LL_AHB1_GRP1_DisableClockStopSleep\n
 359:C:/Users/12522/STM32Cube/Repository/STM32Cube_FW_G4_V1.5.0/Drivers/STM32G4xx_HAL_Driver/Inc\stm32g4xx_ll_bus.h ****   *         AHB1SMENR    CRCSMEN       LL_AHB1_GRP1_EnableClockStopSleep
 360:C:/Users/12522/STM32Cube/Repository/STM32Cube_FW_G4_V1.5.0/Drivers/STM32G4xx_HAL_Driver/Inc\stm32g4xx_ll_bus.h ****   * @param  Periphs This parameter can be a combination of the following values:
 361:C:/Users/12522/STM32Cube/Repository/STM32Cube_FW_G4_V1.5.0/Drivers/STM32G4xx_HAL_Driver/Inc\stm32g4xx_ll_bus.h ****   *         @arg @ref LL_AHB1_GRP1_PERIPH_DMA1
 362:C:/Users/12522/STM32Cube/Repository/STM32Cube_FW_G4_V1.5.0/Drivers/STM32G4xx_HAL_Driver/Inc\stm32g4xx_ll_bus.h ****   *         @arg @ref LL_AHB1_GRP1_PERIPH_DMA2
 363:C:/Users/12522/STM32Cube/Repository/STM32Cube_FW_G4_V1.5.0/Drivers/STM32G4xx_HAL_Driver/Inc\stm32g4xx_ll_bus.h ****   *         @arg @ref LL_AHB1_GRP1_PERIPH_DMAMUX1
 364:C:/Users/12522/STM32Cube/Repository/STM32Cube_FW_G4_V1.5.0/Drivers/STM32G4xx_HAL_Driver/Inc\stm32g4xx_ll_bus.h ****   *         @arg @ref LL_AHB1_GRP1_PERIPH_CORDIC
 365:C:/Users/12522/STM32Cube/Repository/STM32Cube_FW_G4_V1.5.0/Drivers/STM32G4xx_HAL_Driver/Inc\stm32g4xx_ll_bus.h ****   *         @arg @ref LL_AHB1_GRP1_PERIPH_FMAC
 366:C:/Users/12522/STM32Cube/Repository/STM32Cube_FW_G4_V1.5.0/Drivers/STM32G4xx_HAL_Driver/Inc\stm32g4xx_ll_bus.h ****   *         @arg @ref LL_AHB1_GRP1_PERIPH_FLASH
 367:C:/Users/12522/STM32Cube/Repository/STM32Cube_FW_G4_V1.5.0/Drivers/STM32G4xx_HAL_Driver/Inc\stm32g4xx_ll_bus.h ****   *         @arg @ref LL_AHB1_GRP1_PERIPH_SRAM1
 368:C:/Users/12522/STM32Cube/Repository/STM32Cube_FW_G4_V1.5.0/Drivers/STM32G4xx_HAL_Driver/Inc\stm32g4xx_ll_bus.h ****   *         @arg @ref LL_AHB1_GRP1_PERIPH_CRC
 369:C:/Users/12522/STM32Cube/Repository/STM32Cube_FW_G4_V1.5.0/Drivers/STM32G4xx_HAL_Driver/Inc\stm32g4xx_ll_bus.h ****   * @retval None
 370:C:/Users/12522/STM32Cube/Repository/STM32Cube_FW_G4_V1.5.0/Drivers/STM32G4xx_HAL_Driver/Inc\stm32g4xx_ll_bus.h ****   */
 371:C:/Users/12522/STM32Cube/Repository/STM32Cube_FW_G4_V1.5.0/Drivers/STM32G4xx_HAL_Driver/Inc\stm32g4xx_ll_bus.h **** __STATIC_INLINE void LL_AHB1_GRP1_EnableClockStopSleep(uint32_t Periphs)
 372:C:/Users/12522/STM32Cube/Repository/STM32Cube_FW_G4_V1.5.0/Drivers/STM32G4xx_HAL_Driver/Inc\stm32g4xx_ll_bus.h **** {
 373:C:/Users/12522/STM32Cube/Repository/STM32Cube_FW_G4_V1.5.0/Drivers/STM32G4xx_HAL_Driver/Inc\stm32g4xx_ll_bus.h ****   __IO uint32_t tmpreg;
 374:C:/Users/12522/STM32Cube/Repository/STM32Cube_FW_G4_V1.5.0/Drivers/STM32G4xx_HAL_Driver/Inc\stm32g4xx_ll_bus.h ****   SET_BIT(RCC->AHB1SMENR, Periphs);
 375:C:/Users/12522/STM32Cube/Repository/STM32Cube_FW_G4_V1.5.0/Drivers/STM32G4xx_HAL_Driver/Inc\stm32g4xx_ll_bus.h ****   /* Delay after an RCC peripheral clock enabling */
 376:C:/Users/12522/STM32Cube/Repository/STM32Cube_FW_G4_V1.5.0/Drivers/STM32G4xx_HAL_Driver/Inc\stm32g4xx_ll_bus.h ****   tmpreg = READ_BIT(RCC->AHB1SMENR, Periphs);
 377:C:/Users/12522/STM32Cube/Repository/STM32Cube_FW_G4_V1.5.0/Drivers/STM32G4xx_HAL_Driver/Inc\stm32g4xx_ll_bus.h ****   (void)tmpreg;
 378:C:/Users/12522/STM32Cube/Repository/STM32Cube_FW_G4_V1.5.0/Drivers/STM32G4xx_HAL_Driver/Inc\stm32g4xx_ll_bus.h **** }
 379:C:/Users/12522/STM32Cube/Repository/STM32Cube_FW_G4_V1.5.0/Drivers/STM32G4xx_HAL_Driver/Inc\stm32g4xx_ll_bus.h **** 
 380:C:/Users/12522/STM32Cube/Repository/STM32Cube_FW_G4_V1.5.0/Drivers/STM32G4xx_HAL_Driver/Inc\stm32g4xx_ll_bus.h **** /**
 381:C:/Users/12522/STM32Cube/Repository/STM32Cube_FW_G4_V1.5.0/Drivers/STM32G4xx_HAL_Driver/Inc\stm32g4xx_ll_bus.h ****   * @brief  Disable AHB1 peripheral clocks in Sleep and Stop modes
 382:C:/Users/12522/STM32Cube/Repository/STM32Cube_FW_G4_V1.5.0/Drivers/STM32G4xx_HAL_Driver/Inc\stm32g4xx_ll_bus.h ****   * @rmtoll AHB1SMENR    DMA1SMEN      LL_AHB1_GRP1_DisableClockStopSleep\n
 383:C:/Users/12522/STM32Cube/Repository/STM32Cube_FW_G4_V1.5.0/Drivers/STM32G4xx_HAL_Driver/Inc\stm32g4xx_ll_bus.h ****   *         AHB1SMENR    DMA2SMEN      LL_AHB1_GRP1_DisableClockStopSleep\n
 384:C:/Users/12522/STM32Cube/Repository/STM32Cube_FW_G4_V1.5.0/Drivers/STM32G4xx_HAL_Driver/Inc\stm32g4xx_ll_bus.h ****   *         AHB1SMENR    DMAMUXSMEN    LL_AHB1_GRP1_DisableClockStopSleep\n
 385:C:/Users/12522/STM32Cube/Repository/STM32Cube_FW_G4_V1.5.0/Drivers/STM32G4xx_HAL_Driver/Inc\stm32g4xx_ll_bus.h ****   *         AHB1SMENR    CORDICSMEN    LL_AHB1_GRP1_DisableClockStopSleep\n
 386:C:/Users/12522/STM32Cube/Repository/STM32Cube_FW_G4_V1.5.0/Drivers/STM32G4xx_HAL_Driver/Inc\stm32g4xx_ll_bus.h ****   *         AHB1SMENR    FMACSMEN      LL_AHB1_GRP1_DisableClockStopSleep\n
 387:C:/Users/12522/STM32Cube/Repository/STM32Cube_FW_G4_V1.5.0/Drivers/STM32G4xx_HAL_Driver/Inc\stm32g4xx_ll_bus.h ****   *         AHB1SMENR    FLASHSMEN     LL_AHB1_GRP1_DisableClockStopSleep\n
 388:C:/Users/12522/STM32Cube/Repository/STM32Cube_FW_G4_V1.5.0/Drivers/STM32G4xx_HAL_Driver/Inc\stm32g4xx_ll_bus.h ****   *         AHB1SMENR    SRAM1SMEN     LL_AHB1_GRP1_DisableClockStopSleep\n
 389:C:/Users/12522/STM32Cube/Repository/STM32Cube_FW_G4_V1.5.0/Drivers/STM32G4xx_HAL_Driver/Inc\stm32g4xx_ll_bus.h ****   *         AHB1SMENR    CRCSMEN       LL_AHB1_GRP1_DisableClockStopSleep
 390:C:/Users/12522/STM32Cube/Repository/STM32Cube_FW_G4_V1.5.0/Drivers/STM32G4xx_HAL_Driver/Inc\stm32g4xx_ll_bus.h ****   * @param  Periphs This parameter can be a combination of the following values:
 391:C:/Users/12522/STM32Cube/Repository/STM32Cube_FW_G4_V1.5.0/Drivers/STM32G4xx_HAL_Driver/Inc\stm32g4xx_ll_bus.h ****   *         @arg @ref LL_AHB1_GRP1_PERIPH_DMA1
 392:C:/Users/12522/STM32Cube/Repository/STM32Cube_FW_G4_V1.5.0/Drivers/STM32G4xx_HAL_Driver/Inc\stm32g4xx_ll_bus.h ****   *         @arg @ref LL_AHB1_GRP1_PERIPH_DMA2
 393:C:/Users/12522/STM32Cube/Repository/STM32Cube_FW_G4_V1.5.0/Drivers/STM32G4xx_HAL_Driver/Inc\stm32g4xx_ll_bus.h ****   *         @arg @ref LL_AHB1_GRP1_PERIPH_DMAMUX1
 394:C:/Users/12522/STM32Cube/Repository/STM32Cube_FW_G4_V1.5.0/Drivers/STM32G4xx_HAL_Driver/Inc\stm32g4xx_ll_bus.h ****   *         @arg @ref LL_AHB1_GRP1_PERIPH_CORDIC
 395:C:/Users/12522/STM32Cube/Repository/STM32Cube_FW_G4_V1.5.0/Drivers/STM32G4xx_HAL_Driver/Inc\stm32g4xx_ll_bus.h ****   *         @arg @ref LL_AHB1_GRP1_PERIPH_FMAC
 396:C:/Users/12522/STM32Cube/Repository/STM32Cube_FW_G4_V1.5.0/Drivers/STM32G4xx_HAL_Driver/Inc\stm32g4xx_ll_bus.h ****   *         @arg @ref LL_AHB1_GRP1_PERIPH_FLASH
 397:C:/Users/12522/STM32Cube/Repository/STM32Cube_FW_G4_V1.5.0/Drivers/STM32G4xx_HAL_Driver/Inc\stm32g4xx_ll_bus.h ****   *         @arg @ref LL_AHB1_GRP1_PERIPH_SRAM1
 398:C:/Users/12522/STM32Cube/Repository/STM32Cube_FW_G4_V1.5.0/Drivers/STM32G4xx_HAL_Driver/Inc\stm32g4xx_ll_bus.h ****   *         @arg @ref LL_AHB1_GRP1_PERIPH_CRC
 399:C:/Users/12522/STM32Cube/Repository/STM32Cube_FW_G4_V1.5.0/Drivers/STM32G4xx_HAL_Driver/Inc\stm32g4xx_ll_bus.h ****   * @retval None
 400:C:/Users/12522/STM32Cube/Repository/STM32Cube_FW_G4_V1.5.0/Drivers/STM32G4xx_HAL_Driver/Inc\stm32g4xx_ll_bus.h ****   */
 401:C:/Users/12522/STM32Cube/Repository/STM32Cube_FW_G4_V1.5.0/Drivers/STM32G4xx_HAL_Driver/Inc\stm32g4xx_ll_bus.h **** __STATIC_INLINE void LL_AHB1_GRP1_DisableClockStopSleep(uint32_t Periphs)
 402:C:/Users/12522/STM32Cube/Repository/STM32Cube_FW_G4_V1.5.0/Drivers/STM32G4xx_HAL_Driver/Inc\stm32g4xx_ll_bus.h **** {
 403:C:/Users/12522/STM32Cube/Repository/STM32Cube_FW_G4_V1.5.0/Drivers/STM32G4xx_HAL_Driver/Inc\stm32g4xx_ll_bus.h ****   CLEAR_BIT(RCC->AHB1SMENR, Periphs);
 404:C:/Users/12522/STM32Cube/Repository/STM32Cube_FW_G4_V1.5.0/Drivers/STM32G4xx_HAL_Driver/Inc\stm32g4xx_ll_bus.h **** }
 405:C:/Users/12522/STM32Cube/Repository/STM32Cube_FW_G4_V1.5.0/Drivers/STM32G4xx_HAL_Driver/Inc\stm32g4xx_ll_bus.h **** 
 406:C:/Users/12522/STM32Cube/Repository/STM32Cube_FW_G4_V1.5.0/Drivers/STM32G4xx_HAL_Driver/Inc\stm32g4xx_ll_bus.h **** /**
 407:C:/Users/12522/STM32Cube/Repository/STM32Cube_FW_G4_V1.5.0/Drivers/STM32G4xx_HAL_Driver/Inc\stm32g4xx_ll_bus.h ****   * @}
 408:C:/Users/12522/STM32Cube/Repository/STM32Cube_FW_G4_V1.5.0/Drivers/STM32G4xx_HAL_Driver/Inc\stm32g4xx_ll_bus.h ****   */
 409:C:/Users/12522/STM32Cube/Repository/STM32Cube_FW_G4_V1.5.0/Drivers/STM32G4xx_HAL_Driver/Inc\stm32g4xx_ll_bus.h **** 
 410:C:/Users/12522/STM32Cube/Repository/STM32Cube_FW_G4_V1.5.0/Drivers/STM32G4xx_HAL_Driver/Inc\stm32g4xx_ll_bus.h **** /** @defgroup BUS_LL_EF_AHB2 AHB2
 411:C:/Users/12522/STM32Cube/Repository/STM32Cube_FW_G4_V1.5.0/Drivers/STM32G4xx_HAL_Driver/Inc\stm32g4xx_ll_bus.h ****   * @{
ARM GAS  F:\msys64\tmp\cc5aZRcQ.s 			page 10


 412:C:/Users/12522/STM32Cube/Repository/STM32Cube_FW_G4_V1.5.0/Drivers/STM32G4xx_HAL_Driver/Inc\stm32g4xx_ll_bus.h ****   */
 413:C:/Users/12522/STM32Cube/Repository/STM32Cube_FW_G4_V1.5.0/Drivers/STM32G4xx_HAL_Driver/Inc\stm32g4xx_ll_bus.h **** 
 414:C:/Users/12522/STM32Cube/Repository/STM32Cube_FW_G4_V1.5.0/Drivers/STM32G4xx_HAL_Driver/Inc\stm32g4xx_ll_bus.h **** /**
 415:C:/Users/12522/STM32Cube/Repository/STM32Cube_FW_G4_V1.5.0/Drivers/STM32G4xx_HAL_Driver/Inc\stm32g4xx_ll_bus.h ****   * @brief  Enable AHB2 peripherals clock.
 416:C:/Users/12522/STM32Cube/Repository/STM32Cube_FW_G4_V1.5.0/Drivers/STM32G4xx_HAL_Driver/Inc\stm32g4xx_ll_bus.h ****   * @rmtoll AHB2ENR      GPIOAEN       LL_AHB2_GRP1_EnableClock\n
 417:C:/Users/12522/STM32Cube/Repository/STM32Cube_FW_G4_V1.5.0/Drivers/STM32G4xx_HAL_Driver/Inc\stm32g4xx_ll_bus.h ****   *         AHB2ENR      GPIOBEN       LL_AHB2_GRP1_EnableClock\n
 418:C:/Users/12522/STM32Cube/Repository/STM32Cube_FW_G4_V1.5.0/Drivers/STM32G4xx_HAL_Driver/Inc\stm32g4xx_ll_bus.h ****   *         AHB2ENR      GPIOCEN       LL_AHB2_GRP1_EnableClock\n
 419:C:/Users/12522/STM32Cube/Repository/STM32Cube_FW_G4_V1.5.0/Drivers/STM32G4xx_HAL_Driver/Inc\stm32g4xx_ll_bus.h ****   *         AHB2ENR      GPIODEN       LL_AHB2_GRP1_EnableClock\n
 420:C:/Users/12522/STM32Cube/Repository/STM32Cube_FW_G4_V1.5.0/Drivers/STM32G4xx_HAL_Driver/Inc\stm32g4xx_ll_bus.h ****   *         AHB2ENR      GPIOEEN       LL_AHB2_GRP1_EnableClock\n
 421:C:/Users/12522/STM32Cube/Repository/STM32Cube_FW_G4_V1.5.0/Drivers/STM32G4xx_HAL_Driver/Inc\stm32g4xx_ll_bus.h ****   *         AHB2ENR      GPIOFEN       LL_AHB2_GRP1_EnableClock\n
 422:C:/Users/12522/STM32Cube/Repository/STM32Cube_FW_G4_V1.5.0/Drivers/STM32G4xx_HAL_Driver/Inc\stm32g4xx_ll_bus.h ****   *         AHB2ENR      GPIOGEN       LL_AHB2_GRP1_EnableClock\n
 423:C:/Users/12522/STM32Cube/Repository/STM32Cube_FW_G4_V1.5.0/Drivers/STM32G4xx_HAL_Driver/Inc\stm32g4xx_ll_bus.h ****   *         AHB2ENR      ADC12EN       LL_AHB2_GRP1_EnableClock\n
 424:C:/Users/12522/STM32Cube/Repository/STM32Cube_FW_G4_V1.5.0/Drivers/STM32G4xx_HAL_Driver/Inc\stm32g4xx_ll_bus.h ****   *         AHB2ENR      ADC345EN      LL_AHB2_GRP1_EnableClock\n
 425:C:/Users/12522/STM32Cube/Repository/STM32Cube_FW_G4_V1.5.0/Drivers/STM32G4xx_HAL_Driver/Inc\stm32g4xx_ll_bus.h ****   *         AHB2ENR      DAC1EN        LL_AHB2_GRP1_EnableClock\n
 426:C:/Users/12522/STM32Cube/Repository/STM32Cube_FW_G4_V1.5.0/Drivers/STM32G4xx_HAL_Driver/Inc\stm32g4xx_ll_bus.h ****   *         AHB2ENR      DAC2EN        LL_AHB2_GRP1_EnableClock\n
 427:C:/Users/12522/STM32Cube/Repository/STM32Cube_FW_G4_V1.5.0/Drivers/STM32G4xx_HAL_Driver/Inc\stm32g4xx_ll_bus.h ****   *         AHB2ENR      DAC3EN        LL_AHB2_GRP1_EnableClock\n
 428:C:/Users/12522/STM32Cube/Repository/STM32Cube_FW_G4_V1.5.0/Drivers/STM32G4xx_HAL_Driver/Inc\stm32g4xx_ll_bus.h ****   *         AHB2ENR      DAC4EN        LL_AHB2_GRP1_EnableClock\n
 429:C:/Users/12522/STM32Cube/Repository/STM32Cube_FW_G4_V1.5.0/Drivers/STM32G4xx_HAL_Driver/Inc\stm32g4xx_ll_bus.h ****   *         AHB2ENR      AESEN         LL_AHB2_GRP1_EnableClock\n
 430:C:/Users/12522/STM32Cube/Repository/STM32Cube_FW_G4_V1.5.0/Drivers/STM32G4xx_HAL_Driver/Inc\stm32g4xx_ll_bus.h ****   *         AHB2ENR      RNGEN         LL_AHB2_GRP1_EnableClock
 431:C:/Users/12522/STM32Cube/Repository/STM32Cube_FW_G4_V1.5.0/Drivers/STM32G4xx_HAL_Driver/Inc\stm32g4xx_ll_bus.h ****   * @param  Periphs This parameter can be a combination of the following values:
 432:C:/Users/12522/STM32Cube/Repository/STM32Cube_FW_G4_V1.5.0/Drivers/STM32G4xx_HAL_Driver/Inc\stm32g4xx_ll_bus.h ****   *         @arg @ref LL_AHB2_GRP1_PERIPH_GPIOA
 433:C:/Users/12522/STM32Cube/Repository/STM32Cube_FW_G4_V1.5.0/Drivers/STM32G4xx_HAL_Driver/Inc\stm32g4xx_ll_bus.h ****   *         @arg @ref LL_AHB2_GRP1_PERIPH_GPIOB
 434:C:/Users/12522/STM32Cube/Repository/STM32Cube_FW_G4_V1.5.0/Drivers/STM32G4xx_HAL_Driver/Inc\stm32g4xx_ll_bus.h ****   *         @arg @ref LL_AHB2_GRP1_PERIPH_GPIOC
 435:C:/Users/12522/STM32Cube/Repository/STM32Cube_FW_G4_V1.5.0/Drivers/STM32G4xx_HAL_Driver/Inc\stm32g4xx_ll_bus.h ****   *         @arg @ref LL_AHB2_GRP1_PERIPH_GPIOD
 436:C:/Users/12522/STM32Cube/Repository/STM32Cube_FW_G4_V1.5.0/Drivers/STM32G4xx_HAL_Driver/Inc\stm32g4xx_ll_bus.h ****   *         @arg @ref LL_AHB2_GRP1_PERIPH_GPIOE
 437:C:/Users/12522/STM32Cube/Repository/STM32Cube_FW_G4_V1.5.0/Drivers/STM32G4xx_HAL_Driver/Inc\stm32g4xx_ll_bus.h ****   *         @arg @ref LL_AHB2_GRP1_PERIPH_GPIOF
 438:C:/Users/12522/STM32Cube/Repository/STM32Cube_FW_G4_V1.5.0/Drivers/STM32G4xx_HAL_Driver/Inc\stm32g4xx_ll_bus.h ****   *         @arg @ref LL_AHB2_GRP1_PERIPH_GPIOG
 439:C:/Users/12522/STM32Cube/Repository/STM32Cube_FW_G4_V1.5.0/Drivers/STM32G4xx_HAL_Driver/Inc\stm32g4xx_ll_bus.h ****   *         @arg @ref LL_AHB2_GRP1_PERIPH_ADC12
 440:C:/Users/12522/STM32Cube/Repository/STM32Cube_FW_G4_V1.5.0/Drivers/STM32G4xx_HAL_Driver/Inc\stm32g4xx_ll_bus.h ****   *         @arg @ref LL_AHB2_GRP1_PERIPH_ADC345 (*)
 441:C:/Users/12522/STM32Cube/Repository/STM32Cube_FW_G4_V1.5.0/Drivers/STM32G4xx_HAL_Driver/Inc\stm32g4xx_ll_bus.h ****   *         @arg @ref LL_AHB2_GRP1_PERIPH_DAC1
 442:C:/Users/12522/STM32Cube/Repository/STM32Cube_FW_G4_V1.5.0/Drivers/STM32G4xx_HAL_Driver/Inc\stm32g4xx_ll_bus.h ****   *         @arg @ref LL_AHB2_GRP1_PERIPH_DAC2 (*)
 443:C:/Users/12522/STM32Cube/Repository/STM32Cube_FW_G4_V1.5.0/Drivers/STM32G4xx_HAL_Driver/Inc\stm32g4xx_ll_bus.h ****   *         @arg @ref LL_AHB2_GRP1_PERIPH_DAC3
 444:C:/Users/12522/STM32Cube/Repository/STM32Cube_FW_G4_V1.5.0/Drivers/STM32G4xx_HAL_Driver/Inc\stm32g4xx_ll_bus.h ****   *         @arg @ref LL_AHB2_GRP1_PERIPH_DAC4 (*)
 445:C:/Users/12522/STM32Cube/Repository/STM32Cube_FW_G4_V1.5.0/Drivers/STM32G4xx_HAL_Driver/Inc\stm32g4xx_ll_bus.h ****   *         @arg @ref LL_AHB2_GRP1_PERIPH_AES (*)
 446:C:/Users/12522/STM32Cube/Repository/STM32Cube_FW_G4_V1.5.0/Drivers/STM32G4xx_HAL_Driver/Inc\stm32g4xx_ll_bus.h ****   *         @arg @ref LL_AHB2_GRP1_PERIPH_RNG
 447:C:/Users/12522/STM32Cube/Repository/STM32Cube_FW_G4_V1.5.0/Drivers/STM32G4xx_HAL_Driver/Inc\stm32g4xx_ll_bus.h ****   *
 448:C:/Users/12522/STM32Cube/Repository/STM32Cube_FW_G4_V1.5.0/Drivers/STM32G4xx_HAL_Driver/Inc\stm32g4xx_ll_bus.h ****   *         (*) value not defined in all devices.
 449:C:/Users/12522/STM32Cube/Repository/STM32Cube_FW_G4_V1.5.0/Drivers/STM32G4xx_HAL_Driver/Inc\stm32g4xx_ll_bus.h ****   * @retval None
 450:C:/Users/12522/STM32Cube/Repository/STM32Cube_FW_G4_V1.5.0/Drivers/STM32G4xx_HAL_Driver/Inc\stm32g4xx_ll_bus.h ****   */
 451:C:/Users/12522/STM32Cube/Repository/STM32Cube_FW_G4_V1.5.0/Drivers/STM32G4xx_HAL_Driver/Inc\stm32g4xx_ll_bus.h **** __STATIC_INLINE void LL_AHB2_GRP1_EnableClock(uint32_t Periphs)
  56              		.loc 2 451 22 view .LVU4
  57              	.LBB9:
 452:C:/Users/12522/STM32Cube/Repository/STM32Cube_FW_G4_V1.5.0/Drivers/STM32G4xx_HAL_Driver/Inc\stm32g4xx_ll_bus.h **** {
 453:C:/Users/12522/STM32Cube/Repository/STM32Cube_FW_G4_V1.5.0/Drivers/STM32G4xx_HAL_Driver/Inc\stm32g4xx_ll_bus.h ****   __IO uint32_t tmpreg;
  58              		.loc 2 453 3 view .LVU5
 454:C:/Users/12522/STM32Cube/Repository/STM32Cube_FW_G4_V1.5.0/Drivers/STM32G4xx_HAL_Driver/Inc\stm32g4xx_ll_bus.h ****   SET_BIT(RCC->AHB2ENR, Periphs);
  59              		.loc 2 454 3 view .LVU6
  60 0012 134B     		ldr	r3, .L3
  61 0014 DA6C     		ldr	r2, [r3, #76]
  62 0016 42F00102 		orr	r2, r2, #1
  63 001a DA64     		str	r2, [r3, #76]
 455:C:/Users/12522/STM32Cube/Repository/STM32Cube_FW_G4_V1.5.0/Drivers/STM32G4xx_HAL_Driver/Inc\stm32g4xx_ll_bus.h ****   /* Delay after an RCC peripheral clock enabling */
 456:C:/Users/12522/STM32Cube/Repository/STM32Cube_FW_G4_V1.5.0/Drivers/STM32G4xx_HAL_Driver/Inc\stm32g4xx_ll_bus.h ****   tmpreg = READ_BIT(RCC->AHB2ENR, Periphs);
  64              		.loc 2 456 3 view .LVU7
  65              		.loc 2 456 12 is_stmt 0 view .LVU8
  66 001c DA6C     		ldr	r2, [r3, #76]
  67 001e 02F00102 		and	r2, r2, #1
ARM GAS  F:\msys64\tmp\cc5aZRcQ.s 			page 11


  68              		.loc 2 456 10 view .LVU9
  69 0022 0192     		str	r2, [sp, #4]
 457:C:/Users/12522/STM32Cube/Repository/STM32Cube_FW_G4_V1.5.0/Drivers/STM32G4xx_HAL_Driver/Inc\stm32g4xx_ll_bus.h ****   (void)tmpreg;
  70              		.loc 2 457 3 is_stmt 1 view .LVU10
  71 0024 019A     		ldr	r2, [sp, #4]
  72              	.LVL1:
  73              		.loc 2 457 3 is_stmt 0 view .LVU11
  74              	.LBE9:
  75              	.LBE8:
  49:Core/Src/gpio.c ****   LL_AHB2_GRP1_EnableClock(LL_AHB2_GRP1_PERIPH_GPIOB);
  76              		.loc 1 49 3 is_stmt 1 view .LVU12
  77              	.LBB10:
  78              	.LBI10:
 451:C:/Users/12522/STM32Cube/Repository/STM32Cube_FW_G4_V1.5.0/Drivers/STM32G4xx_HAL_Driver/Inc\stm32g4xx_ll_bus.h **** {
  79              		.loc 2 451 22 view .LVU13
  80              	.LBB11:
 453:C:/Users/12522/STM32Cube/Repository/STM32Cube_FW_G4_V1.5.0/Drivers/STM32G4xx_HAL_Driver/Inc\stm32g4xx_ll_bus.h ****   SET_BIT(RCC->AHB2ENR, Periphs);
  81              		.loc 2 453 3 view .LVU14
 454:C:/Users/12522/STM32Cube/Repository/STM32Cube_FW_G4_V1.5.0/Drivers/STM32G4xx_HAL_Driver/Inc\stm32g4xx_ll_bus.h ****   /* Delay after an RCC peripheral clock enabling */
  82              		.loc 2 454 3 view .LVU15
  83 0026 DA6C     		ldr	r2, [r3, #76]
  84 0028 42F00202 		orr	r2, r2, #2
  85 002c DA64     		str	r2, [r3, #76]
 456:C:/Users/12522/STM32Cube/Repository/STM32Cube_FW_G4_V1.5.0/Drivers/STM32G4xx_HAL_Driver/Inc\stm32g4xx_ll_bus.h ****   (void)tmpreg;
  86              		.loc 2 456 3 view .LVU16
 456:C:/Users/12522/STM32Cube/Repository/STM32Cube_FW_G4_V1.5.0/Drivers/STM32G4xx_HAL_Driver/Inc\stm32g4xx_ll_bus.h ****   (void)tmpreg;
  87              		.loc 2 456 12 is_stmt 0 view .LVU17
  88 002e DB6C     		ldr	r3, [r3, #76]
  89 0030 03F00203 		and	r3, r3, #2
 456:C:/Users/12522/STM32Cube/Repository/STM32Cube_FW_G4_V1.5.0/Drivers/STM32G4xx_HAL_Driver/Inc\stm32g4xx_ll_bus.h ****   (void)tmpreg;
  90              		.loc 2 456 10 view .LVU18
  91 0034 0093     		str	r3, [sp]
  92              		.loc 2 457 3 is_stmt 1 view .LVU19
  93 0036 009B     		ldr	r3, [sp]
  94              	.LVL2:
  95              		.loc 2 457 3 is_stmt 0 view .LVU20
  96              	.LBE11:
  97              	.LBE10:
  50:Core/Src/gpio.c **** 
  51:Core/Src/gpio.c ****   /**/
  52:Core/Src/gpio.c ****   LL_GPIO_ResetOutputPin(LED_GPIO_Port, LED_Pin);
  98              		.loc 1 52 3 is_stmt 1 view .LVU21
  99              	.LBB12:
 100              	.LBI12:
 101              		.file 3 "C:/Users/12522/STM32Cube/Repository/STM32Cube_FW_G4_V1.5.0/Drivers/STM32G4xx_HAL_Driver/I
   1:C:/Users/12522/STM32Cube/Repository/STM32Cube_FW_G4_V1.5.0/Drivers/STM32G4xx_HAL_Driver/Inc\stm32g4xx_ll_gpio.h **** /**
   2:C:/Users/12522/STM32Cube/Repository/STM32Cube_FW_G4_V1.5.0/Drivers/STM32G4xx_HAL_Driver/Inc\stm32g4xx_ll_gpio.h ****   ******************************************************************************
   3:C:/Users/12522/STM32Cube/Repository/STM32Cube_FW_G4_V1.5.0/Drivers/STM32G4xx_HAL_Driver/Inc\stm32g4xx_ll_gpio.h ****   * @file    stm32g4xx_ll_gpio.h
   4:C:/Users/12522/STM32Cube/Repository/STM32Cube_FW_G4_V1.5.0/Drivers/STM32G4xx_HAL_Driver/Inc\stm32g4xx_ll_gpio.h ****   * @author  MCD Application Team
   5:C:/Users/12522/STM32Cube/Repository/STM32Cube_FW_G4_V1.5.0/Drivers/STM32G4xx_HAL_Driver/Inc\stm32g4xx_ll_gpio.h ****   * @brief   Header file of GPIO LL module.
   6:C:/Users/12522/STM32Cube/Repository/STM32Cube_FW_G4_V1.5.0/Drivers/STM32G4xx_HAL_Driver/Inc\stm32g4xx_ll_gpio.h ****   ******************************************************************************
   7:C:/Users/12522/STM32Cube/Repository/STM32Cube_FW_G4_V1.5.0/Drivers/STM32G4xx_HAL_Driver/Inc\stm32g4xx_ll_gpio.h ****   * @attention
   8:C:/Users/12522/STM32Cube/Repository/STM32Cube_FW_G4_V1.5.0/Drivers/STM32G4xx_HAL_Driver/Inc\stm32g4xx_ll_gpio.h ****   *
   9:C:/Users/12522/STM32Cube/Repository/STM32Cube_FW_G4_V1.5.0/Drivers/STM32G4xx_HAL_Driver/Inc\stm32g4xx_ll_gpio.h ****   * Copyright (c) 2019 STMicroelectronics.
  10:C:/Users/12522/STM32Cube/Repository/STM32Cube_FW_G4_V1.5.0/Drivers/STM32G4xx_HAL_Driver/Inc\stm32g4xx_ll_gpio.h ****   * All rights reserved.
  11:C:/Users/12522/STM32Cube/Repository/STM32Cube_FW_G4_V1.5.0/Drivers/STM32G4xx_HAL_Driver/Inc\stm32g4xx_ll_gpio.h ****   *
  12:C:/Users/12522/STM32Cube/Repository/STM32Cube_FW_G4_V1.5.0/Drivers/STM32G4xx_HAL_Driver/Inc\stm32g4xx_ll_gpio.h ****   * This software is licensed under terms that can be found in the LICENSE file
ARM GAS  F:\msys64\tmp\cc5aZRcQ.s 			page 12


  13:C:/Users/12522/STM32Cube/Repository/STM32Cube_FW_G4_V1.5.0/Drivers/STM32G4xx_HAL_Driver/Inc\stm32g4xx_ll_gpio.h ****   * in the root directory of this software component.
  14:C:/Users/12522/STM32Cube/Repository/STM32Cube_FW_G4_V1.5.0/Drivers/STM32G4xx_HAL_Driver/Inc\stm32g4xx_ll_gpio.h ****   * If no LICENSE file comes with this software, it is provided AS-IS.
  15:C:/Users/12522/STM32Cube/Repository/STM32Cube_FW_G4_V1.5.0/Drivers/STM32G4xx_HAL_Driver/Inc\stm32g4xx_ll_gpio.h ****   *
  16:C:/Users/12522/STM32Cube/Repository/STM32Cube_FW_G4_V1.5.0/Drivers/STM32G4xx_HAL_Driver/Inc\stm32g4xx_ll_gpio.h ****   ******************************************************************************
  17:C:/Users/12522/STM32Cube/Repository/STM32Cube_FW_G4_V1.5.0/Drivers/STM32G4xx_HAL_Driver/Inc\stm32g4xx_ll_gpio.h ****   */
  18:C:/Users/12522/STM32Cube/Repository/STM32Cube_FW_G4_V1.5.0/Drivers/STM32G4xx_HAL_Driver/Inc\stm32g4xx_ll_gpio.h **** 
  19:C:/Users/12522/STM32Cube/Repository/STM32Cube_FW_G4_V1.5.0/Drivers/STM32G4xx_HAL_Driver/Inc\stm32g4xx_ll_gpio.h **** /* Define to prevent recursive inclusion -------------------------------------*/
  20:C:/Users/12522/STM32Cube/Repository/STM32Cube_FW_G4_V1.5.0/Drivers/STM32G4xx_HAL_Driver/Inc\stm32g4xx_ll_gpio.h **** #ifndef STM32G4xx_LL_GPIO_H
  21:C:/Users/12522/STM32Cube/Repository/STM32Cube_FW_G4_V1.5.0/Drivers/STM32G4xx_HAL_Driver/Inc\stm32g4xx_ll_gpio.h **** #define STM32G4xx_LL_GPIO_H
  22:C:/Users/12522/STM32Cube/Repository/STM32Cube_FW_G4_V1.5.0/Drivers/STM32G4xx_HAL_Driver/Inc\stm32g4xx_ll_gpio.h **** 
  23:C:/Users/12522/STM32Cube/Repository/STM32Cube_FW_G4_V1.5.0/Drivers/STM32G4xx_HAL_Driver/Inc\stm32g4xx_ll_gpio.h **** #ifdef __cplusplus
  24:C:/Users/12522/STM32Cube/Repository/STM32Cube_FW_G4_V1.5.0/Drivers/STM32G4xx_HAL_Driver/Inc\stm32g4xx_ll_gpio.h **** extern "C" {
  25:C:/Users/12522/STM32Cube/Repository/STM32Cube_FW_G4_V1.5.0/Drivers/STM32G4xx_HAL_Driver/Inc\stm32g4xx_ll_gpio.h **** #endif
  26:C:/Users/12522/STM32Cube/Repository/STM32Cube_FW_G4_V1.5.0/Drivers/STM32G4xx_HAL_Driver/Inc\stm32g4xx_ll_gpio.h **** 
  27:C:/Users/12522/STM32Cube/Repository/STM32Cube_FW_G4_V1.5.0/Drivers/STM32G4xx_HAL_Driver/Inc\stm32g4xx_ll_gpio.h **** /* Includes ------------------------------------------------------------------*/
  28:C:/Users/12522/STM32Cube/Repository/STM32Cube_FW_G4_V1.5.0/Drivers/STM32G4xx_HAL_Driver/Inc\stm32g4xx_ll_gpio.h **** #include "stm32g4xx.h"
  29:C:/Users/12522/STM32Cube/Repository/STM32Cube_FW_G4_V1.5.0/Drivers/STM32G4xx_HAL_Driver/Inc\stm32g4xx_ll_gpio.h **** 
  30:C:/Users/12522/STM32Cube/Repository/STM32Cube_FW_G4_V1.5.0/Drivers/STM32G4xx_HAL_Driver/Inc\stm32g4xx_ll_gpio.h **** /** @addtogroup STM32G4xx_LL_Driver
  31:C:/Users/12522/STM32Cube/Repository/STM32Cube_FW_G4_V1.5.0/Drivers/STM32G4xx_HAL_Driver/Inc\stm32g4xx_ll_gpio.h ****   * @{
  32:C:/Users/12522/STM32Cube/Repository/STM32Cube_FW_G4_V1.5.0/Drivers/STM32G4xx_HAL_Driver/Inc\stm32g4xx_ll_gpio.h ****   */
  33:C:/Users/12522/STM32Cube/Repository/STM32Cube_FW_G4_V1.5.0/Drivers/STM32G4xx_HAL_Driver/Inc\stm32g4xx_ll_gpio.h **** 
  34:C:/Users/12522/STM32Cube/Repository/STM32Cube_FW_G4_V1.5.0/Drivers/STM32G4xx_HAL_Driver/Inc\stm32g4xx_ll_gpio.h **** #if defined (GPIOA) || defined (GPIOB) || defined (GPIOC) || defined (GPIOD) || defined (GPIOE) || 
  35:C:/Users/12522/STM32Cube/Repository/STM32Cube_FW_G4_V1.5.0/Drivers/STM32G4xx_HAL_Driver/Inc\stm32g4xx_ll_gpio.h **** 
  36:C:/Users/12522/STM32Cube/Repository/STM32Cube_FW_G4_V1.5.0/Drivers/STM32G4xx_HAL_Driver/Inc\stm32g4xx_ll_gpio.h **** /** @defgroup GPIO_LL GPIO
  37:C:/Users/12522/STM32Cube/Repository/STM32Cube_FW_G4_V1.5.0/Drivers/STM32G4xx_HAL_Driver/Inc\stm32g4xx_ll_gpio.h ****   * @{
  38:C:/Users/12522/STM32Cube/Repository/STM32Cube_FW_G4_V1.5.0/Drivers/STM32G4xx_HAL_Driver/Inc\stm32g4xx_ll_gpio.h ****   */
  39:C:/Users/12522/STM32Cube/Repository/STM32Cube_FW_G4_V1.5.0/Drivers/STM32G4xx_HAL_Driver/Inc\stm32g4xx_ll_gpio.h **** /** MISRA C:2012 deviation rule has been granted for following rules:
  40:C:/Users/12522/STM32Cube/Repository/STM32Cube_FW_G4_V1.5.0/Drivers/STM32G4xx_HAL_Driver/Inc\stm32g4xx_ll_gpio.h ****   * Rule-18.1_d - Medium: Array pointer `GPIOx' is accessed with index [..,..]
  41:C:/Users/12522/STM32Cube/Repository/STM32Cube_FW_G4_V1.5.0/Drivers/STM32G4xx_HAL_Driver/Inc\stm32g4xx_ll_gpio.h ****   * which may be out of array bounds [..,UNKNOWN] in following APIs:
  42:C:/Users/12522/STM32Cube/Repository/STM32Cube_FW_G4_V1.5.0/Drivers/STM32G4xx_HAL_Driver/Inc\stm32g4xx_ll_gpio.h ****   * LL_GPIO_GetAFPin_0_7
  43:C:/Users/12522/STM32Cube/Repository/STM32Cube_FW_G4_V1.5.0/Drivers/STM32G4xx_HAL_Driver/Inc\stm32g4xx_ll_gpio.h ****   * LL_GPIO_SetAFPin_0_7
  44:C:/Users/12522/STM32Cube/Repository/STM32Cube_FW_G4_V1.5.0/Drivers/STM32G4xx_HAL_Driver/Inc\stm32g4xx_ll_gpio.h ****   * LL_GPIO_SetAFPin_8_15
  45:C:/Users/12522/STM32Cube/Repository/STM32Cube_FW_G4_V1.5.0/Drivers/STM32G4xx_HAL_Driver/Inc\stm32g4xx_ll_gpio.h ****   * LL_GPIO_GetAFPin_8_15
  46:C:/Users/12522/STM32Cube/Repository/STM32Cube_FW_G4_V1.5.0/Drivers/STM32G4xx_HAL_Driver/Inc\stm32g4xx_ll_gpio.h ****   */
  47:C:/Users/12522/STM32Cube/Repository/STM32Cube_FW_G4_V1.5.0/Drivers/STM32G4xx_HAL_Driver/Inc\stm32g4xx_ll_gpio.h **** 
  48:C:/Users/12522/STM32Cube/Repository/STM32Cube_FW_G4_V1.5.0/Drivers/STM32G4xx_HAL_Driver/Inc\stm32g4xx_ll_gpio.h **** /* Private types -------------------------------------------------------------*/
  49:C:/Users/12522/STM32Cube/Repository/STM32Cube_FW_G4_V1.5.0/Drivers/STM32G4xx_HAL_Driver/Inc\stm32g4xx_ll_gpio.h **** /* Private variables ---------------------------------------------------------*/
  50:C:/Users/12522/STM32Cube/Repository/STM32Cube_FW_G4_V1.5.0/Drivers/STM32G4xx_HAL_Driver/Inc\stm32g4xx_ll_gpio.h **** /* Private constants ---------------------------------------------------------*/
  51:C:/Users/12522/STM32Cube/Repository/STM32Cube_FW_G4_V1.5.0/Drivers/STM32G4xx_HAL_Driver/Inc\stm32g4xx_ll_gpio.h **** /* Private macros ------------------------------------------------------------*/
  52:C:/Users/12522/STM32Cube/Repository/STM32Cube_FW_G4_V1.5.0/Drivers/STM32G4xx_HAL_Driver/Inc\stm32g4xx_ll_gpio.h **** #if defined(USE_FULL_LL_DRIVER)
  53:C:/Users/12522/STM32Cube/Repository/STM32Cube_FW_G4_V1.5.0/Drivers/STM32G4xx_HAL_Driver/Inc\stm32g4xx_ll_gpio.h **** /** @defgroup GPIO_LL_Private_Macros GPIO Private Macros
  54:C:/Users/12522/STM32Cube/Repository/STM32Cube_FW_G4_V1.5.0/Drivers/STM32G4xx_HAL_Driver/Inc\stm32g4xx_ll_gpio.h ****   * @{
  55:C:/Users/12522/STM32Cube/Repository/STM32Cube_FW_G4_V1.5.0/Drivers/STM32G4xx_HAL_Driver/Inc\stm32g4xx_ll_gpio.h ****   */
  56:C:/Users/12522/STM32Cube/Repository/STM32Cube_FW_G4_V1.5.0/Drivers/STM32G4xx_HAL_Driver/Inc\stm32g4xx_ll_gpio.h **** 
  57:C:/Users/12522/STM32Cube/Repository/STM32Cube_FW_G4_V1.5.0/Drivers/STM32G4xx_HAL_Driver/Inc\stm32g4xx_ll_gpio.h **** /**
  58:C:/Users/12522/STM32Cube/Repository/STM32Cube_FW_G4_V1.5.0/Drivers/STM32G4xx_HAL_Driver/Inc\stm32g4xx_ll_gpio.h ****   * @}
  59:C:/Users/12522/STM32Cube/Repository/STM32Cube_FW_G4_V1.5.0/Drivers/STM32G4xx_HAL_Driver/Inc\stm32g4xx_ll_gpio.h ****   */
  60:C:/Users/12522/STM32Cube/Repository/STM32Cube_FW_G4_V1.5.0/Drivers/STM32G4xx_HAL_Driver/Inc\stm32g4xx_ll_gpio.h **** #endif /*USE_FULL_LL_DRIVER*/
  61:C:/Users/12522/STM32Cube/Repository/STM32Cube_FW_G4_V1.5.0/Drivers/STM32G4xx_HAL_Driver/Inc\stm32g4xx_ll_gpio.h **** 
  62:C:/Users/12522/STM32Cube/Repository/STM32Cube_FW_G4_V1.5.0/Drivers/STM32G4xx_HAL_Driver/Inc\stm32g4xx_ll_gpio.h **** /* Exported types ------------------------------------------------------------*/
  63:C:/Users/12522/STM32Cube/Repository/STM32Cube_FW_G4_V1.5.0/Drivers/STM32G4xx_HAL_Driver/Inc\stm32g4xx_ll_gpio.h **** #if defined(USE_FULL_LL_DRIVER)
  64:C:/Users/12522/STM32Cube/Repository/STM32Cube_FW_G4_V1.5.0/Drivers/STM32G4xx_HAL_Driver/Inc\stm32g4xx_ll_gpio.h **** /** @defgroup GPIO_LL_ES_INIT GPIO Exported Init structures
  65:C:/Users/12522/STM32Cube/Repository/STM32Cube_FW_G4_V1.5.0/Drivers/STM32G4xx_HAL_Driver/Inc\stm32g4xx_ll_gpio.h ****   * @{
  66:C:/Users/12522/STM32Cube/Repository/STM32Cube_FW_G4_V1.5.0/Drivers/STM32G4xx_HAL_Driver/Inc\stm32g4xx_ll_gpio.h ****   */
  67:C:/Users/12522/STM32Cube/Repository/STM32Cube_FW_G4_V1.5.0/Drivers/STM32G4xx_HAL_Driver/Inc\stm32g4xx_ll_gpio.h **** 
  68:C:/Users/12522/STM32Cube/Repository/STM32Cube_FW_G4_V1.5.0/Drivers/STM32G4xx_HAL_Driver/Inc\stm32g4xx_ll_gpio.h **** /**
  69:C:/Users/12522/STM32Cube/Repository/STM32Cube_FW_G4_V1.5.0/Drivers/STM32G4xx_HAL_Driver/Inc\stm32g4xx_ll_gpio.h ****   * @brief LL GPIO Init Structure definition
ARM GAS  F:\msys64\tmp\cc5aZRcQ.s 			page 13


  70:C:/Users/12522/STM32Cube/Repository/STM32Cube_FW_G4_V1.5.0/Drivers/STM32G4xx_HAL_Driver/Inc\stm32g4xx_ll_gpio.h ****   */
  71:C:/Users/12522/STM32Cube/Repository/STM32Cube_FW_G4_V1.5.0/Drivers/STM32G4xx_HAL_Driver/Inc\stm32g4xx_ll_gpio.h **** typedef struct
  72:C:/Users/12522/STM32Cube/Repository/STM32Cube_FW_G4_V1.5.0/Drivers/STM32G4xx_HAL_Driver/Inc\stm32g4xx_ll_gpio.h **** {
  73:C:/Users/12522/STM32Cube/Repository/STM32Cube_FW_G4_V1.5.0/Drivers/STM32G4xx_HAL_Driver/Inc\stm32g4xx_ll_gpio.h ****   uint32_t Pin;          /*!< Specifies the GPIO pins to be configured.
  74:C:/Users/12522/STM32Cube/Repository/STM32Cube_FW_G4_V1.5.0/Drivers/STM32G4xx_HAL_Driver/Inc\stm32g4xx_ll_gpio.h ****                               This parameter can be any value of @ref GPIO_LL_EC_PIN */
  75:C:/Users/12522/STM32Cube/Repository/STM32Cube_FW_G4_V1.5.0/Drivers/STM32G4xx_HAL_Driver/Inc\stm32g4xx_ll_gpio.h **** 
  76:C:/Users/12522/STM32Cube/Repository/STM32Cube_FW_G4_V1.5.0/Drivers/STM32G4xx_HAL_Driver/Inc\stm32g4xx_ll_gpio.h ****   uint32_t Mode;         /*!< Specifies the operating mode for the selected pins.
  77:C:/Users/12522/STM32Cube/Repository/STM32Cube_FW_G4_V1.5.0/Drivers/STM32G4xx_HAL_Driver/Inc\stm32g4xx_ll_gpio.h ****                               This parameter can be a value of @ref GPIO_LL_EC_MODE.
  78:C:/Users/12522/STM32Cube/Repository/STM32Cube_FW_G4_V1.5.0/Drivers/STM32G4xx_HAL_Driver/Inc\stm32g4xx_ll_gpio.h **** 
  79:C:/Users/12522/STM32Cube/Repository/STM32Cube_FW_G4_V1.5.0/Drivers/STM32G4xx_HAL_Driver/Inc\stm32g4xx_ll_gpio.h ****                               GPIO HW configuration can be modified afterwards using unitary functi
  80:C:/Users/12522/STM32Cube/Repository/STM32Cube_FW_G4_V1.5.0/Drivers/STM32G4xx_HAL_Driver/Inc\stm32g4xx_ll_gpio.h **** 
  81:C:/Users/12522/STM32Cube/Repository/STM32Cube_FW_G4_V1.5.0/Drivers/STM32G4xx_HAL_Driver/Inc\stm32g4xx_ll_gpio.h ****   uint32_t Speed;        /*!< Specifies the speed for the selected pins.
  82:C:/Users/12522/STM32Cube/Repository/STM32Cube_FW_G4_V1.5.0/Drivers/STM32G4xx_HAL_Driver/Inc\stm32g4xx_ll_gpio.h ****                               This parameter can be a value of @ref GPIO_LL_EC_SPEED.
  83:C:/Users/12522/STM32Cube/Repository/STM32Cube_FW_G4_V1.5.0/Drivers/STM32G4xx_HAL_Driver/Inc\stm32g4xx_ll_gpio.h **** 
  84:C:/Users/12522/STM32Cube/Repository/STM32Cube_FW_G4_V1.5.0/Drivers/STM32G4xx_HAL_Driver/Inc\stm32g4xx_ll_gpio.h ****                               GPIO HW configuration can be modified afterwards using unitary functi
  85:C:/Users/12522/STM32Cube/Repository/STM32Cube_FW_G4_V1.5.0/Drivers/STM32G4xx_HAL_Driver/Inc\stm32g4xx_ll_gpio.h **** 
  86:C:/Users/12522/STM32Cube/Repository/STM32Cube_FW_G4_V1.5.0/Drivers/STM32G4xx_HAL_Driver/Inc\stm32g4xx_ll_gpio.h ****   uint32_t OutputType;   /*!< Specifies the operating output type for the selected pins.
  87:C:/Users/12522/STM32Cube/Repository/STM32Cube_FW_G4_V1.5.0/Drivers/STM32G4xx_HAL_Driver/Inc\stm32g4xx_ll_gpio.h ****                               This parameter can be a value of @ref GPIO_LL_EC_OUTPUT.
  88:C:/Users/12522/STM32Cube/Repository/STM32Cube_FW_G4_V1.5.0/Drivers/STM32G4xx_HAL_Driver/Inc\stm32g4xx_ll_gpio.h **** 
  89:C:/Users/12522/STM32Cube/Repository/STM32Cube_FW_G4_V1.5.0/Drivers/STM32G4xx_HAL_Driver/Inc\stm32g4xx_ll_gpio.h ****                               GPIO HW configuration can be modified afterwards using unitary functi
  90:C:/Users/12522/STM32Cube/Repository/STM32Cube_FW_G4_V1.5.0/Drivers/STM32G4xx_HAL_Driver/Inc\stm32g4xx_ll_gpio.h **** 
  91:C:/Users/12522/STM32Cube/Repository/STM32Cube_FW_G4_V1.5.0/Drivers/STM32G4xx_HAL_Driver/Inc\stm32g4xx_ll_gpio.h ****   uint32_t Pull;         /*!< Specifies the operating Pull-up/Pull down for the selected pins.
  92:C:/Users/12522/STM32Cube/Repository/STM32Cube_FW_G4_V1.5.0/Drivers/STM32G4xx_HAL_Driver/Inc\stm32g4xx_ll_gpio.h ****                               This parameter can be a value of @ref GPIO_LL_EC_PULL.
  93:C:/Users/12522/STM32Cube/Repository/STM32Cube_FW_G4_V1.5.0/Drivers/STM32G4xx_HAL_Driver/Inc\stm32g4xx_ll_gpio.h **** 
  94:C:/Users/12522/STM32Cube/Repository/STM32Cube_FW_G4_V1.5.0/Drivers/STM32G4xx_HAL_Driver/Inc\stm32g4xx_ll_gpio.h ****                               GPIO HW configuration can be modified afterwards using unitary functi
  95:C:/Users/12522/STM32Cube/Repository/STM32Cube_FW_G4_V1.5.0/Drivers/STM32G4xx_HAL_Driver/Inc\stm32g4xx_ll_gpio.h **** 
  96:C:/Users/12522/STM32Cube/Repository/STM32Cube_FW_G4_V1.5.0/Drivers/STM32G4xx_HAL_Driver/Inc\stm32g4xx_ll_gpio.h ****   uint32_t Alternate;    /*!< Specifies the Peripheral to be connected to the selected pins.
  97:C:/Users/12522/STM32Cube/Repository/STM32Cube_FW_G4_V1.5.0/Drivers/STM32G4xx_HAL_Driver/Inc\stm32g4xx_ll_gpio.h ****                               This parameter can be a value of @ref GPIO_LL_EC_AF.
  98:C:/Users/12522/STM32Cube/Repository/STM32Cube_FW_G4_V1.5.0/Drivers/STM32G4xx_HAL_Driver/Inc\stm32g4xx_ll_gpio.h **** 
  99:C:/Users/12522/STM32Cube/Repository/STM32Cube_FW_G4_V1.5.0/Drivers/STM32G4xx_HAL_Driver/Inc\stm32g4xx_ll_gpio.h ****                               GPIO HW configuration can be modified afterwards using unitary functi
 100:C:/Users/12522/STM32Cube/Repository/STM32Cube_FW_G4_V1.5.0/Drivers/STM32G4xx_HAL_Driver/Inc\stm32g4xx_ll_gpio.h **** } LL_GPIO_InitTypeDef;
 101:C:/Users/12522/STM32Cube/Repository/STM32Cube_FW_G4_V1.5.0/Drivers/STM32G4xx_HAL_Driver/Inc\stm32g4xx_ll_gpio.h **** 
 102:C:/Users/12522/STM32Cube/Repository/STM32Cube_FW_G4_V1.5.0/Drivers/STM32G4xx_HAL_Driver/Inc\stm32g4xx_ll_gpio.h **** /**
 103:C:/Users/12522/STM32Cube/Repository/STM32Cube_FW_G4_V1.5.0/Drivers/STM32G4xx_HAL_Driver/Inc\stm32g4xx_ll_gpio.h ****   * @}
 104:C:/Users/12522/STM32Cube/Repository/STM32Cube_FW_G4_V1.5.0/Drivers/STM32G4xx_HAL_Driver/Inc\stm32g4xx_ll_gpio.h ****   */
 105:C:/Users/12522/STM32Cube/Repository/STM32Cube_FW_G4_V1.5.0/Drivers/STM32G4xx_HAL_Driver/Inc\stm32g4xx_ll_gpio.h **** #endif /* USE_FULL_LL_DRIVER */
 106:C:/Users/12522/STM32Cube/Repository/STM32Cube_FW_G4_V1.5.0/Drivers/STM32G4xx_HAL_Driver/Inc\stm32g4xx_ll_gpio.h **** 
 107:C:/Users/12522/STM32Cube/Repository/STM32Cube_FW_G4_V1.5.0/Drivers/STM32G4xx_HAL_Driver/Inc\stm32g4xx_ll_gpio.h **** /* Exported constants --------------------------------------------------------*/
 108:C:/Users/12522/STM32Cube/Repository/STM32Cube_FW_G4_V1.5.0/Drivers/STM32G4xx_HAL_Driver/Inc\stm32g4xx_ll_gpio.h **** /** @defgroup GPIO_LL_Exported_Constants GPIO Exported Constants
 109:C:/Users/12522/STM32Cube/Repository/STM32Cube_FW_G4_V1.5.0/Drivers/STM32G4xx_HAL_Driver/Inc\stm32g4xx_ll_gpio.h ****   * @{
 110:C:/Users/12522/STM32Cube/Repository/STM32Cube_FW_G4_V1.5.0/Drivers/STM32G4xx_HAL_Driver/Inc\stm32g4xx_ll_gpio.h ****   */
 111:C:/Users/12522/STM32Cube/Repository/STM32Cube_FW_G4_V1.5.0/Drivers/STM32G4xx_HAL_Driver/Inc\stm32g4xx_ll_gpio.h **** 
 112:C:/Users/12522/STM32Cube/Repository/STM32Cube_FW_G4_V1.5.0/Drivers/STM32G4xx_HAL_Driver/Inc\stm32g4xx_ll_gpio.h **** /** @defgroup GPIO_LL_EC_PIN PIN
 113:C:/Users/12522/STM32Cube/Repository/STM32Cube_FW_G4_V1.5.0/Drivers/STM32G4xx_HAL_Driver/Inc\stm32g4xx_ll_gpio.h ****   * @{
 114:C:/Users/12522/STM32Cube/Repository/STM32Cube_FW_G4_V1.5.0/Drivers/STM32G4xx_HAL_Driver/Inc\stm32g4xx_ll_gpio.h ****   */
 115:C:/Users/12522/STM32Cube/Repository/STM32Cube_FW_G4_V1.5.0/Drivers/STM32G4xx_HAL_Driver/Inc\stm32g4xx_ll_gpio.h **** #define LL_GPIO_PIN_0                      GPIO_BSRR_BS0 /*!< Select pin 0 */
 116:C:/Users/12522/STM32Cube/Repository/STM32Cube_FW_G4_V1.5.0/Drivers/STM32G4xx_HAL_Driver/Inc\stm32g4xx_ll_gpio.h **** #define LL_GPIO_PIN_1                      GPIO_BSRR_BS1 /*!< Select pin 1 */
 117:C:/Users/12522/STM32Cube/Repository/STM32Cube_FW_G4_V1.5.0/Drivers/STM32G4xx_HAL_Driver/Inc\stm32g4xx_ll_gpio.h **** #define LL_GPIO_PIN_2                      GPIO_BSRR_BS2 /*!< Select pin 2 */
 118:C:/Users/12522/STM32Cube/Repository/STM32Cube_FW_G4_V1.5.0/Drivers/STM32G4xx_HAL_Driver/Inc\stm32g4xx_ll_gpio.h **** #define LL_GPIO_PIN_3                      GPIO_BSRR_BS3 /*!< Select pin 3 */
 119:C:/Users/12522/STM32Cube/Repository/STM32Cube_FW_G4_V1.5.0/Drivers/STM32G4xx_HAL_Driver/Inc\stm32g4xx_ll_gpio.h **** #define LL_GPIO_PIN_4                      GPIO_BSRR_BS4 /*!< Select pin 4 */
 120:C:/Users/12522/STM32Cube/Repository/STM32Cube_FW_G4_V1.5.0/Drivers/STM32G4xx_HAL_Driver/Inc\stm32g4xx_ll_gpio.h **** #define LL_GPIO_PIN_5                      GPIO_BSRR_BS5 /*!< Select pin 5 */
 121:C:/Users/12522/STM32Cube/Repository/STM32Cube_FW_G4_V1.5.0/Drivers/STM32G4xx_HAL_Driver/Inc\stm32g4xx_ll_gpio.h **** #define LL_GPIO_PIN_6                      GPIO_BSRR_BS6 /*!< Select pin 6 */
 122:C:/Users/12522/STM32Cube/Repository/STM32Cube_FW_G4_V1.5.0/Drivers/STM32G4xx_HAL_Driver/Inc\stm32g4xx_ll_gpio.h **** #define LL_GPIO_PIN_7                      GPIO_BSRR_BS7 /*!< Select pin 7 */
 123:C:/Users/12522/STM32Cube/Repository/STM32Cube_FW_G4_V1.5.0/Drivers/STM32G4xx_HAL_Driver/Inc\stm32g4xx_ll_gpio.h **** #define LL_GPIO_PIN_8                      GPIO_BSRR_BS8 /*!< Select pin 8 */
 124:C:/Users/12522/STM32Cube/Repository/STM32Cube_FW_G4_V1.5.0/Drivers/STM32G4xx_HAL_Driver/Inc\stm32g4xx_ll_gpio.h **** #define LL_GPIO_PIN_9                      GPIO_BSRR_BS9 /*!< Select pin 9 */
 125:C:/Users/12522/STM32Cube/Repository/STM32Cube_FW_G4_V1.5.0/Drivers/STM32G4xx_HAL_Driver/Inc\stm32g4xx_ll_gpio.h **** #define LL_GPIO_PIN_10                     GPIO_BSRR_BS10 /*!< Select pin 10 */
 126:C:/Users/12522/STM32Cube/Repository/STM32Cube_FW_G4_V1.5.0/Drivers/STM32G4xx_HAL_Driver/Inc\stm32g4xx_ll_gpio.h **** #define LL_GPIO_PIN_11                     GPIO_BSRR_BS11 /*!< Select pin 11 */
ARM GAS  F:\msys64\tmp\cc5aZRcQ.s 			page 14


 127:C:/Users/12522/STM32Cube/Repository/STM32Cube_FW_G4_V1.5.0/Drivers/STM32G4xx_HAL_Driver/Inc\stm32g4xx_ll_gpio.h **** #define LL_GPIO_PIN_12                     GPIO_BSRR_BS12 /*!< Select pin 12 */
 128:C:/Users/12522/STM32Cube/Repository/STM32Cube_FW_G4_V1.5.0/Drivers/STM32G4xx_HAL_Driver/Inc\stm32g4xx_ll_gpio.h **** #define LL_GPIO_PIN_13                     GPIO_BSRR_BS13 /*!< Select pin 13 */
 129:C:/Users/12522/STM32Cube/Repository/STM32Cube_FW_G4_V1.5.0/Drivers/STM32G4xx_HAL_Driver/Inc\stm32g4xx_ll_gpio.h **** #define LL_GPIO_PIN_14                     GPIO_BSRR_BS14 /*!< Select pin 14 */
 130:C:/Users/12522/STM32Cube/Repository/STM32Cube_FW_G4_V1.5.0/Drivers/STM32G4xx_HAL_Driver/Inc\stm32g4xx_ll_gpio.h **** #define LL_GPIO_PIN_15                     GPIO_BSRR_BS15 /*!< Select pin 15 */
 131:C:/Users/12522/STM32Cube/Repository/STM32Cube_FW_G4_V1.5.0/Drivers/STM32G4xx_HAL_Driver/Inc\stm32g4xx_ll_gpio.h **** #define LL_GPIO_PIN_ALL                    (GPIO_BSRR_BS0 | GPIO_BSRR_BS1  | GPIO_BSRR_BS2  | \
 132:C:/Users/12522/STM32Cube/Repository/STM32Cube_FW_G4_V1.5.0/Drivers/STM32G4xx_HAL_Driver/Inc\stm32g4xx_ll_gpio.h ****                                            GPIO_BSRR_BS3  | GPIO_BSRR_BS4  | GPIO_BSRR_BS5  | \
 133:C:/Users/12522/STM32Cube/Repository/STM32Cube_FW_G4_V1.5.0/Drivers/STM32G4xx_HAL_Driver/Inc\stm32g4xx_ll_gpio.h ****                                            GPIO_BSRR_BS6  | GPIO_BSRR_BS7  | GPIO_BSRR_BS8  | \
 134:C:/Users/12522/STM32Cube/Repository/STM32Cube_FW_G4_V1.5.0/Drivers/STM32G4xx_HAL_Driver/Inc\stm32g4xx_ll_gpio.h ****                                            GPIO_BSRR_BS9  | GPIO_BSRR_BS10 | GPIO_BSRR_BS11 | \
 135:C:/Users/12522/STM32Cube/Repository/STM32Cube_FW_G4_V1.5.0/Drivers/STM32G4xx_HAL_Driver/Inc\stm32g4xx_ll_gpio.h ****                                            GPIO_BSRR_BS12 | GPIO_BSRR_BS13 | GPIO_BSRR_BS14 | \
 136:C:/Users/12522/STM32Cube/Repository/STM32Cube_FW_G4_V1.5.0/Drivers/STM32G4xx_HAL_Driver/Inc\stm32g4xx_ll_gpio.h ****                                            GPIO_BSRR_BS15) /*!< Select all pins */
 137:C:/Users/12522/STM32Cube/Repository/STM32Cube_FW_G4_V1.5.0/Drivers/STM32G4xx_HAL_Driver/Inc\stm32g4xx_ll_gpio.h **** /**
 138:C:/Users/12522/STM32Cube/Repository/STM32Cube_FW_G4_V1.5.0/Drivers/STM32G4xx_HAL_Driver/Inc\stm32g4xx_ll_gpio.h ****   * @}
 139:C:/Users/12522/STM32Cube/Repository/STM32Cube_FW_G4_V1.5.0/Drivers/STM32G4xx_HAL_Driver/Inc\stm32g4xx_ll_gpio.h ****   */
 140:C:/Users/12522/STM32Cube/Repository/STM32Cube_FW_G4_V1.5.0/Drivers/STM32G4xx_HAL_Driver/Inc\stm32g4xx_ll_gpio.h **** 
 141:C:/Users/12522/STM32Cube/Repository/STM32Cube_FW_G4_V1.5.0/Drivers/STM32G4xx_HAL_Driver/Inc\stm32g4xx_ll_gpio.h **** /** @defgroup GPIO_LL_EC_MODE Mode
 142:C:/Users/12522/STM32Cube/Repository/STM32Cube_FW_G4_V1.5.0/Drivers/STM32G4xx_HAL_Driver/Inc\stm32g4xx_ll_gpio.h ****   * @{
 143:C:/Users/12522/STM32Cube/Repository/STM32Cube_FW_G4_V1.5.0/Drivers/STM32G4xx_HAL_Driver/Inc\stm32g4xx_ll_gpio.h ****   */
 144:C:/Users/12522/STM32Cube/Repository/STM32Cube_FW_G4_V1.5.0/Drivers/STM32G4xx_HAL_Driver/Inc\stm32g4xx_ll_gpio.h **** #define LL_GPIO_MODE_INPUT                 (0x00000000U) /*!< Select input mode */
 145:C:/Users/12522/STM32Cube/Repository/STM32Cube_FW_G4_V1.5.0/Drivers/STM32G4xx_HAL_Driver/Inc\stm32g4xx_ll_gpio.h **** #define LL_GPIO_MODE_OUTPUT                GPIO_MODER_MODE0_0  /*!< Select output mode */
 146:C:/Users/12522/STM32Cube/Repository/STM32Cube_FW_G4_V1.5.0/Drivers/STM32G4xx_HAL_Driver/Inc\stm32g4xx_ll_gpio.h **** #define LL_GPIO_MODE_ALTERNATE             GPIO_MODER_MODE0_1  /*!< Select alternate function mode 
 147:C:/Users/12522/STM32Cube/Repository/STM32Cube_FW_G4_V1.5.0/Drivers/STM32G4xx_HAL_Driver/Inc\stm32g4xx_ll_gpio.h **** #define LL_GPIO_MODE_ANALOG                GPIO_MODER_MODE0    /*!< Select analog mode */
 148:C:/Users/12522/STM32Cube/Repository/STM32Cube_FW_G4_V1.5.0/Drivers/STM32G4xx_HAL_Driver/Inc\stm32g4xx_ll_gpio.h **** /**
 149:C:/Users/12522/STM32Cube/Repository/STM32Cube_FW_G4_V1.5.0/Drivers/STM32G4xx_HAL_Driver/Inc\stm32g4xx_ll_gpio.h ****   * @}
 150:C:/Users/12522/STM32Cube/Repository/STM32Cube_FW_G4_V1.5.0/Drivers/STM32G4xx_HAL_Driver/Inc\stm32g4xx_ll_gpio.h ****   */
 151:C:/Users/12522/STM32Cube/Repository/STM32Cube_FW_G4_V1.5.0/Drivers/STM32G4xx_HAL_Driver/Inc\stm32g4xx_ll_gpio.h **** 
 152:C:/Users/12522/STM32Cube/Repository/STM32Cube_FW_G4_V1.5.0/Drivers/STM32G4xx_HAL_Driver/Inc\stm32g4xx_ll_gpio.h **** /** @defgroup GPIO_LL_EC_OUTPUT Output Type
 153:C:/Users/12522/STM32Cube/Repository/STM32Cube_FW_G4_V1.5.0/Drivers/STM32G4xx_HAL_Driver/Inc\stm32g4xx_ll_gpio.h ****   * @{
 154:C:/Users/12522/STM32Cube/Repository/STM32Cube_FW_G4_V1.5.0/Drivers/STM32G4xx_HAL_Driver/Inc\stm32g4xx_ll_gpio.h ****   */
 155:C:/Users/12522/STM32Cube/Repository/STM32Cube_FW_G4_V1.5.0/Drivers/STM32G4xx_HAL_Driver/Inc\stm32g4xx_ll_gpio.h **** #define LL_GPIO_OUTPUT_PUSHPULL            (0x00000000U) /*!< Select push-pull as output type */
 156:C:/Users/12522/STM32Cube/Repository/STM32Cube_FW_G4_V1.5.0/Drivers/STM32G4xx_HAL_Driver/Inc\stm32g4xx_ll_gpio.h **** #define LL_GPIO_OUTPUT_OPENDRAIN           GPIO_OTYPER_OT0 /*!< Select open-drain as output type */
 157:C:/Users/12522/STM32Cube/Repository/STM32Cube_FW_G4_V1.5.0/Drivers/STM32G4xx_HAL_Driver/Inc\stm32g4xx_ll_gpio.h **** /**
 158:C:/Users/12522/STM32Cube/Repository/STM32Cube_FW_G4_V1.5.0/Drivers/STM32G4xx_HAL_Driver/Inc\stm32g4xx_ll_gpio.h ****   * @}
 159:C:/Users/12522/STM32Cube/Repository/STM32Cube_FW_G4_V1.5.0/Drivers/STM32G4xx_HAL_Driver/Inc\stm32g4xx_ll_gpio.h ****   */
 160:C:/Users/12522/STM32Cube/Repository/STM32Cube_FW_G4_V1.5.0/Drivers/STM32G4xx_HAL_Driver/Inc\stm32g4xx_ll_gpio.h **** 
 161:C:/Users/12522/STM32Cube/Repository/STM32Cube_FW_G4_V1.5.0/Drivers/STM32G4xx_HAL_Driver/Inc\stm32g4xx_ll_gpio.h **** /** @defgroup GPIO_LL_EC_SPEED Output Speed
 162:C:/Users/12522/STM32Cube/Repository/STM32Cube_FW_G4_V1.5.0/Drivers/STM32G4xx_HAL_Driver/Inc\stm32g4xx_ll_gpio.h ****   * @{
 163:C:/Users/12522/STM32Cube/Repository/STM32Cube_FW_G4_V1.5.0/Drivers/STM32G4xx_HAL_Driver/Inc\stm32g4xx_ll_gpio.h ****   */
 164:C:/Users/12522/STM32Cube/Repository/STM32Cube_FW_G4_V1.5.0/Drivers/STM32G4xx_HAL_Driver/Inc\stm32g4xx_ll_gpio.h **** #define LL_GPIO_SPEED_FREQ_LOW             (0x00000000U) /*!< Select I/O low output speed    */
 165:C:/Users/12522/STM32Cube/Repository/STM32Cube_FW_G4_V1.5.0/Drivers/STM32G4xx_HAL_Driver/Inc\stm32g4xx_ll_gpio.h **** #define LL_GPIO_SPEED_FREQ_MEDIUM          GPIO_OSPEEDR_OSPEED0_0 /*!< Select I/O medium output spe
 166:C:/Users/12522/STM32Cube/Repository/STM32Cube_FW_G4_V1.5.0/Drivers/STM32G4xx_HAL_Driver/Inc\stm32g4xx_ll_gpio.h **** #define LL_GPIO_SPEED_FREQ_HIGH            GPIO_OSPEEDR_OSPEED0_1 /*!< Select I/O fast output speed
 167:C:/Users/12522/STM32Cube/Repository/STM32Cube_FW_G4_V1.5.0/Drivers/STM32G4xx_HAL_Driver/Inc\stm32g4xx_ll_gpio.h **** #define LL_GPIO_SPEED_FREQ_VERY_HIGH       GPIO_OSPEEDR_OSPEED0   /*!< Select I/O high output speed
 168:C:/Users/12522/STM32Cube/Repository/STM32Cube_FW_G4_V1.5.0/Drivers/STM32G4xx_HAL_Driver/Inc\stm32g4xx_ll_gpio.h **** /**
 169:C:/Users/12522/STM32Cube/Repository/STM32Cube_FW_G4_V1.5.0/Drivers/STM32G4xx_HAL_Driver/Inc\stm32g4xx_ll_gpio.h ****   * @}
 170:C:/Users/12522/STM32Cube/Repository/STM32Cube_FW_G4_V1.5.0/Drivers/STM32G4xx_HAL_Driver/Inc\stm32g4xx_ll_gpio.h ****   */
 171:C:/Users/12522/STM32Cube/Repository/STM32Cube_FW_G4_V1.5.0/Drivers/STM32G4xx_HAL_Driver/Inc\stm32g4xx_ll_gpio.h **** #define LL_GPIO_SPEED_LOW                  LL_GPIO_SPEED_FREQ_LOW
 172:C:/Users/12522/STM32Cube/Repository/STM32Cube_FW_G4_V1.5.0/Drivers/STM32G4xx_HAL_Driver/Inc\stm32g4xx_ll_gpio.h **** #define LL_GPIO_SPEED_MEDIUM               LL_GPIO_SPEED_FREQ_MEDIUM
 173:C:/Users/12522/STM32Cube/Repository/STM32Cube_FW_G4_V1.5.0/Drivers/STM32G4xx_HAL_Driver/Inc\stm32g4xx_ll_gpio.h **** #define LL_GPIO_SPEED_FAST                 LL_GPIO_SPEED_FREQ_HIGH
 174:C:/Users/12522/STM32Cube/Repository/STM32Cube_FW_G4_V1.5.0/Drivers/STM32G4xx_HAL_Driver/Inc\stm32g4xx_ll_gpio.h **** #define LL_GPIO_SPEED_HIGH                 LL_GPIO_SPEED_FREQ_VERY_HIGH
 175:C:/Users/12522/STM32Cube/Repository/STM32Cube_FW_G4_V1.5.0/Drivers/STM32G4xx_HAL_Driver/Inc\stm32g4xx_ll_gpio.h **** 
 176:C:/Users/12522/STM32Cube/Repository/STM32Cube_FW_G4_V1.5.0/Drivers/STM32G4xx_HAL_Driver/Inc\stm32g4xx_ll_gpio.h **** /** @defgroup GPIO_LL_EC_PULL Pull Up Pull Down
 177:C:/Users/12522/STM32Cube/Repository/STM32Cube_FW_G4_V1.5.0/Drivers/STM32G4xx_HAL_Driver/Inc\stm32g4xx_ll_gpio.h ****   * @{
 178:C:/Users/12522/STM32Cube/Repository/STM32Cube_FW_G4_V1.5.0/Drivers/STM32G4xx_HAL_Driver/Inc\stm32g4xx_ll_gpio.h ****   */
 179:C:/Users/12522/STM32Cube/Repository/STM32Cube_FW_G4_V1.5.0/Drivers/STM32G4xx_HAL_Driver/Inc\stm32g4xx_ll_gpio.h **** #define LL_GPIO_PULL_NO                    (0x00000000U) /*!< Select I/O no pull */
 180:C:/Users/12522/STM32Cube/Repository/STM32Cube_FW_G4_V1.5.0/Drivers/STM32G4xx_HAL_Driver/Inc\stm32g4xx_ll_gpio.h **** #define LL_GPIO_PULL_UP                    GPIO_PUPDR_PUPD0_0 /*!< Select I/O pull up */
 181:C:/Users/12522/STM32Cube/Repository/STM32Cube_FW_G4_V1.5.0/Drivers/STM32G4xx_HAL_Driver/Inc\stm32g4xx_ll_gpio.h **** #define LL_GPIO_PULL_DOWN                  GPIO_PUPDR_PUPD0_1 /*!< Select I/O pull down */
 182:C:/Users/12522/STM32Cube/Repository/STM32Cube_FW_G4_V1.5.0/Drivers/STM32G4xx_HAL_Driver/Inc\stm32g4xx_ll_gpio.h **** /**
 183:C:/Users/12522/STM32Cube/Repository/STM32Cube_FW_G4_V1.5.0/Drivers/STM32G4xx_HAL_Driver/Inc\stm32g4xx_ll_gpio.h ****   * @}
ARM GAS  F:\msys64\tmp\cc5aZRcQ.s 			page 15


 184:C:/Users/12522/STM32Cube/Repository/STM32Cube_FW_G4_V1.5.0/Drivers/STM32G4xx_HAL_Driver/Inc\stm32g4xx_ll_gpio.h ****   */
 185:C:/Users/12522/STM32Cube/Repository/STM32Cube_FW_G4_V1.5.0/Drivers/STM32G4xx_HAL_Driver/Inc\stm32g4xx_ll_gpio.h **** 
 186:C:/Users/12522/STM32Cube/Repository/STM32Cube_FW_G4_V1.5.0/Drivers/STM32G4xx_HAL_Driver/Inc\stm32g4xx_ll_gpio.h **** /** @defgroup GPIO_LL_EC_AF Alternate Function
 187:C:/Users/12522/STM32Cube/Repository/STM32Cube_FW_G4_V1.5.0/Drivers/STM32G4xx_HAL_Driver/Inc\stm32g4xx_ll_gpio.h ****   * @{
 188:C:/Users/12522/STM32Cube/Repository/STM32Cube_FW_G4_V1.5.0/Drivers/STM32G4xx_HAL_Driver/Inc\stm32g4xx_ll_gpio.h ****   */
 189:C:/Users/12522/STM32Cube/Repository/STM32Cube_FW_G4_V1.5.0/Drivers/STM32G4xx_HAL_Driver/Inc\stm32g4xx_ll_gpio.h **** #define LL_GPIO_AF_0                       (0x0000000U) /*!< Select alternate function 0 */
 190:C:/Users/12522/STM32Cube/Repository/STM32Cube_FW_G4_V1.5.0/Drivers/STM32G4xx_HAL_Driver/Inc\stm32g4xx_ll_gpio.h **** #define LL_GPIO_AF_1                       (0x0000001U) /*!< Select alternate function 1 */
 191:C:/Users/12522/STM32Cube/Repository/STM32Cube_FW_G4_V1.5.0/Drivers/STM32G4xx_HAL_Driver/Inc\stm32g4xx_ll_gpio.h **** #define LL_GPIO_AF_2                       (0x0000002U) /*!< Select alternate function 2 */
 192:C:/Users/12522/STM32Cube/Repository/STM32Cube_FW_G4_V1.5.0/Drivers/STM32G4xx_HAL_Driver/Inc\stm32g4xx_ll_gpio.h **** #define LL_GPIO_AF_3                       (0x0000003U) /*!< Select alternate function 3 */
 193:C:/Users/12522/STM32Cube/Repository/STM32Cube_FW_G4_V1.5.0/Drivers/STM32G4xx_HAL_Driver/Inc\stm32g4xx_ll_gpio.h **** #define LL_GPIO_AF_4                       (0x0000004U) /*!< Select alternate function 4 */
 194:C:/Users/12522/STM32Cube/Repository/STM32Cube_FW_G4_V1.5.0/Drivers/STM32G4xx_HAL_Driver/Inc\stm32g4xx_ll_gpio.h **** #define LL_GPIO_AF_5                       (0x0000005U) /*!< Select alternate function 5 */
 195:C:/Users/12522/STM32Cube/Repository/STM32Cube_FW_G4_V1.5.0/Drivers/STM32G4xx_HAL_Driver/Inc\stm32g4xx_ll_gpio.h **** #define LL_GPIO_AF_6                       (0x0000006U) /*!< Select alternate function 6 */
 196:C:/Users/12522/STM32Cube/Repository/STM32Cube_FW_G4_V1.5.0/Drivers/STM32G4xx_HAL_Driver/Inc\stm32g4xx_ll_gpio.h **** #define LL_GPIO_AF_7                       (0x0000007U) /*!< Select alternate function 7 */
 197:C:/Users/12522/STM32Cube/Repository/STM32Cube_FW_G4_V1.5.0/Drivers/STM32G4xx_HAL_Driver/Inc\stm32g4xx_ll_gpio.h **** #define LL_GPIO_AF_8                       (0x0000008U) /*!< Select alternate function 8 */
 198:C:/Users/12522/STM32Cube/Repository/STM32Cube_FW_G4_V1.5.0/Drivers/STM32G4xx_HAL_Driver/Inc\stm32g4xx_ll_gpio.h **** #define LL_GPIO_AF_9                       (0x0000009U) /*!< Select alternate function 9 */
 199:C:/Users/12522/STM32Cube/Repository/STM32Cube_FW_G4_V1.5.0/Drivers/STM32G4xx_HAL_Driver/Inc\stm32g4xx_ll_gpio.h **** #define LL_GPIO_AF_10                      (0x000000AU) /*!< Select alternate function 10 */
 200:C:/Users/12522/STM32Cube/Repository/STM32Cube_FW_G4_V1.5.0/Drivers/STM32G4xx_HAL_Driver/Inc\stm32g4xx_ll_gpio.h **** #define LL_GPIO_AF_11                      (0x000000BU) /*!< Select alternate function 11 */
 201:C:/Users/12522/STM32Cube/Repository/STM32Cube_FW_G4_V1.5.0/Drivers/STM32G4xx_HAL_Driver/Inc\stm32g4xx_ll_gpio.h **** #define LL_GPIO_AF_12                      (0x000000CU) /*!< Select alternate function 12 */
 202:C:/Users/12522/STM32Cube/Repository/STM32Cube_FW_G4_V1.5.0/Drivers/STM32G4xx_HAL_Driver/Inc\stm32g4xx_ll_gpio.h **** #define LL_GPIO_AF_13                      (0x000000DU) /*!< Select alternate function 13 */
 203:C:/Users/12522/STM32Cube/Repository/STM32Cube_FW_G4_V1.5.0/Drivers/STM32G4xx_HAL_Driver/Inc\stm32g4xx_ll_gpio.h **** #define LL_GPIO_AF_14                      (0x000000EU) /*!< Select alternate function 14 */
 204:C:/Users/12522/STM32Cube/Repository/STM32Cube_FW_G4_V1.5.0/Drivers/STM32G4xx_HAL_Driver/Inc\stm32g4xx_ll_gpio.h **** #define LL_GPIO_AF_15                      (0x000000FU) /*!< Select alternate function 15 */
 205:C:/Users/12522/STM32Cube/Repository/STM32Cube_FW_G4_V1.5.0/Drivers/STM32G4xx_HAL_Driver/Inc\stm32g4xx_ll_gpio.h **** /**
 206:C:/Users/12522/STM32Cube/Repository/STM32Cube_FW_G4_V1.5.0/Drivers/STM32G4xx_HAL_Driver/Inc\stm32g4xx_ll_gpio.h ****   * @}
 207:C:/Users/12522/STM32Cube/Repository/STM32Cube_FW_G4_V1.5.0/Drivers/STM32G4xx_HAL_Driver/Inc\stm32g4xx_ll_gpio.h ****   */
 208:C:/Users/12522/STM32Cube/Repository/STM32Cube_FW_G4_V1.5.0/Drivers/STM32G4xx_HAL_Driver/Inc\stm32g4xx_ll_gpio.h **** 
 209:C:/Users/12522/STM32Cube/Repository/STM32Cube_FW_G4_V1.5.0/Drivers/STM32G4xx_HAL_Driver/Inc\stm32g4xx_ll_gpio.h **** /**
 210:C:/Users/12522/STM32Cube/Repository/STM32Cube_FW_G4_V1.5.0/Drivers/STM32G4xx_HAL_Driver/Inc\stm32g4xx_ll_gpio.h ****   * @}
 211:C:/Users/12522/STM32Cube/Repository/STM32Cube_FW_G4_V1.5.0/Drivers/STM32G4xx_HAL_Driver/Inc\stm32g4xx_ll_gpio.h ****   */
 212:C:/Users/12522/STM32Cube/Repository/STM32Cube_FW_G4_V1.5.0/Drivers/STM32G4xx_HAL_Driver/Inc\stm32g4xx_ll_gpio.h **** 
 213:C:/Users/12522/STM32Cube/Repository/STM32Cube_FW_G4_V1.5.0/Drivers/STM32G4xx_HAL_Driver/Inc\stm32g4xx_ll_gpio.h **** /* Exported macro ------------------------------------------------------------*/
 214:C:/Users/12522/STM32Cube/Repository/STM32Cube_FW_G4_V1.5.0/Drivers/STM32G4xx_HAL_Driver/Inc\stm32g4xx_ll_gpio.h **** /** @defgroup GPIO_LL_Exported_Macros GPIO Exported Macros
 215:C:/Users/12522/STM32Cube/Repository/STM32Cube_FW_G4_V1.5.0/Drivers/STM32G4xx_HAL_Driver/Inc\stm32g4xx_ll_gpio.h ****   * @{
 216:C:/Users/12522/STM32Cube/Repository/STM32Cube_FW_G4_V1.5.0/Drivers/STM32G4xx_HAL_Driver/Inc\stm32g4xx_ll_gpio.h ****   */
 217:C:/Users/12522/STM32Cube/Repository/STM32Cube_FW_G4_V1.5.0/Drivers/STM32G4xx_HAL_Driver/Inc\stm32g4xx_ll_gpio.h **** 
 218:C:/Users/12522/STM32Cube/Repository/STM32Cube_FW_G4_V1.5.0/Drivers/STM32G4xx_HAL_Driver/Inc\stm32g4xx_ll_gpio.h **** /** @defgroup GPIO_LL_EM_WRITE_READ Common Write and read registers Macros
 219:C:/Users/12522/STM32Cube/Repository/STM32Cube_FW_G4_V1.5.0/Drivers/STM32G4xx_HAL_Driver/Inc\stm32g4xx_ll_gpio.h ****   * @{
 220:C:/Users/12522/STM32Cube/Repository/STM32Cube_FW_G4_V1.5.0/Drivers/STM32G4xx_HAL_Driver/Inc\stm32g4xx_ll_gpio.h ****   */
 221:C:/Users/12522/STM32Cube/Repository/STM32Cube_FW_G4_V1.5.0/Drivers/STM32G4xx_HAL_Driver/Inc\stm32g4xx_ll_gpio.h **** 
 222:C:/Users/12522/STM32Cube/Repository/STM32Cube_FW_G4_V1.5.0/Drivers/STM32G4xx_HAL_Driver/Inc\stm32g4xx_ll_gpio.h **** /**
 223:C:/Users/12522/STM32Cube/Repository/STM32Cube_FW_G4_V1.5.0/Drivers/STM32G4xx_HAL_Driver/Inc\stm32g4xx_ll_gpio.h ****   * @brief  Write a value in GPIO register
 224:C:/Users/12522/STM32Cube/Repository/STM32Cube_FW_G4_V1.5.0/Drivers/STM32G4xx_HAL_Driver/Inc\stm32g4xx_ll_gpio.h ****   * @param  __INSTANCE__ GPIO Instance
 225:C:/Users/12522/STM32Cube/Repository/STM32Cube_FW_G4_V1.5.0/Drivers/STM32G4xx_HAL_Driver/Inc\stm32g4xx_ll_gpio.h ****   * @param  __REG__ Register to be written
 226:C:/Users/12522/STM32Cube/Repository/STM32Cube_FW_G4_V1.5.0/Drivers/STM32G4xx_HAL_Driver/Inc\stm32g4xx_ll_gpio.h ****   * @param  __VALUE__ Value to be written in the register
 227:C:/Users/12522/STM32Cube/Repository/STM32Cube_FW_G4_V1.5.0/Drivers/STM32G4xx_HAL_Driver/Inc\stm32g4xx_ll_gpio.h ****   * @retval None
 228:C:/Users/12522/STM32Cube/Repository/STM32Cube_FW_G4_V1.5.0/Drivers/STM32G4xx_HAL_Driver/Inc\stm32g4xx_ll_gpio.h ****   */
 229:C:/Users/12522/STM32Cube/Repository/STM32Cube_FW_G4_V1.5.0/Drivers/STM32G4xx_HAL_Driver/Inc\stm32g4xx_ll_gpio.h **** #define LL_GPIO_WriteReg(__INSTANCE__, __REG__, __VALUE__) WRITE_REG(__INSTANCE__->__REG__, (__VALU
 230:C:/Users/12522/STM32Cube/Repository/STM32Cube_FW_G4_V1.5.0/Drivers/STM32G4xx_HAL_Driver/Inc\stm32g4xx_ll_gpio.h **** 
 231:C:/Users/12522/STM32Cube/Repository/STM32Cube_FW_G4_V1.5.0/Drivers/STM32G4xx_HAL_Driver/Inc\stm32g4xx_ll_gpio.h **** /**
 232:C:/Users/12522/STM32Cube/Repository/STM32Cube_FW_G4_V1.5.0/Drivers/STM32G4xx_HAL_Driver/Inc\stm32g4xx_ll_gpio.h ****   * @brief  Read a value in GPIO register
 233:C:/Users/12522/STM32Cube/Repository/STM32Cube_FW_G4_V1.5.0/Drivers/STM32G4xx_HAL_Driver/Inc\stm32g4xx_ll_gpio.h ****   * @param  __INSTANCE__ GPIO Instance
 234:C:/Users/12522/STM32Cube/Repository/STM32Cube_FW_G4_V1.5.0/Drivers/STM32G4xx_HAL_Driver/Inc\stm32g4xx_ll_gpio.h ****   * @param  __REG__ Register to be read
 235:C:/Users/12522/STM32Cube/Repository/STM32Cube_FW_G4_V1.5.0/Drivers/STM32G4xx_HAL_Driver/Inc\stm32g4xx_ll_gpio.h ****   * @retval Register value
 236:C:/Users/12522/STM32Cube/Repository/STM32Cube_FW_G4_V1.5.0/Drivers/STM32G4xx_HAL_Driver/Inc\stm32g4xx_ll_gpio.h ****   */
 237:C:/Users/12522/STM32Cube/Repository/STM32Cube_FW_G4_V1.5.0/Drivers/STM32G4xx_HAL_Driver/Inc\stm32g4xx_ll_gpio.h **** #define LL_GPIO_ReadReg(__INSTANCE__, __REG__) READ_REG(__INSTANCE__->__REG__)
 238:C:/Users/12522/STM32Cube/Repository/STM32Cube_FW_G4_V1.5.0/Drivers/STM32G4xx_HAL_Driver/Inc\stm32g4xx_ll_gpio.h **** /**
 239:C:/Users/12522/STM32Cube/Repository/STM32Cube_FW_G4_V1.5.0/Drivers/STM32G4xx_HAL_Driver/Inc\stm32g4xx_ll_gpio.h ****   * @}
 240:C:/Users/12522/STM32Cube/Repository/STM32Cube_FW_G4_V1.5.0/Drivers/STM32G4xx_HAL_Driver/Inc\stm32g4xx_ll_gpio.h ****   */
ARM GAS  F:\msys64\tmp\cc5aZRcQ.s 			page 16


 241:C:/Users/12522/STM32Cube/Repository/STM32Cube_FW_G4_V1.5.0/Drivers/STM32G4xx_HAL_Driver/Inc\stm32g4xx_ll_gpio.h **** 
 242:C:/Users/12522/STM32Cube/Repository/STM32Cube_FW_G4_V1.5.0/Drivers/STM32G4xx_HAL_Driver/Inc\stm32g4xx_ll_gpio.h **** /**
 243:C:/Users/12522/STM32Cube/Repository/STM32Cube_FW_G4_V1.5.0/Drivers/STM32G4xx_HAL_Driver/Inc\stm32g4xx_ll_gpio.h ****   * @}
 244:C:/Users/12522/STM32Cube/Repository/STM32Cube_FW_G4_V1.5.0/Drivers/STM32G4xx_HAL_Driver/Inc\stm32g4xx_ll_gpio.h ****   */
 245:C:/Users/12522/STM32Cube/Repository/STM32Cube_FW_G4_V1.5.0/Drivers/STM32G4xx_HAL_Driver/Inc\stm32g4xx_ll_gpio.h **** 
 246:C:/Users/12522/STM32Cube/Repository/STM32Cube_FW_G4_V1.5.0/Drivers/STM32G4xx_HAL_Driver/Inc\stm32g4xx_ll_gpio.h **** /* Exported functions --------------------------------------------------------*/
 247:C:/Users/12522/STM32Cube/Repository/STM32Cube_FW_G4_V1.5.0/Drivers/STM32G4xx_HAL_Driver/Inc\stm32g4xx_ll_gpio.h **** /** @defgroup GPIO_LL_Exported_Functions GPIO Exported Functions
 248:C:/Users/12522/STM32Cube/Repository/STM32Cube_FW_G4_V1.5.0/Drivers/STM32G4xx_HAL_Driver/Inc\stm32g4xx_ll_gpio.h ****   * @{
 249:C:/Users/12522/STM32Cube/Repository/STM32Cube_FW_G4_V1.5.0/Drivers/STM32G4xx_HAL_Driver/Inc\stm32g4xx_ll_gpio.h ****   */
 250:C:/Users/12522/STM32Cube/Repository/STM32Cube_FW_G4_V1.5.0/Drivers/STM32G4xx_HAL_Driver/Inc\stm32g4xx_ll_gpio.h **** 
 251:C:/Users/12522/STM32Cube/Repository/STM32Cube_FW_G4_V1.5.0/Drivers/STM32G4xx_HAL_Driver/Inc\stm32g4xx_ll_gpio.h **** /** @defgroup GPIO_LL_EF_Port_Configuration Port Configuration
 252:C:/Users/12522/STM32Cube/Repository/STM32Cube_FW_G4_V1.5.0/Drivers/STM32G4xx_HAL_Driver/Inc\stm32g4xx_ll_gpio.h ****   * @{
 253:C:/Users/12522/STM32Cube/Repository/STM32Cube_FW_G4_V1.5.0/Drivers/STM32G4xx_HAL_Driver/Inc\stm32g4xx_ll_gpio.h ****   */
 254:C:/Users/12522/STM32Cube/Repository/STM32Cube_FW_G4_V1.5.0/Drivers/STM32G4xx_HAL_Driver/Inc\stm32g4xx_ll_gpio.h **** 
 255:C:/Users/12522/STM32Cube/Repository/STM32Cube_FW_G4_V1.5.0/Drivers/STM32G4xx_HAL_Driver/Inc\stm32g4xx_ll_gpio.h **** /**
 256:C:/Users/12522/STM32Cube/Repository/STM32Cube_FW_G4_V1.5.0/Drivers/STM32G4xx_HAL_Driver/Inc\stm32g4xx_ll_gpio.h ****   * @brief  Configure gpio mode for a dedicated pin on dedicated port.
 257:C:/Users/12522/STM32Cube/Repository/STM32Cube_FW_G4_V1.5.0/Drivers/STM32G4xx_HAL_Driver/Inc\stm32g4xx_ll_gpio.h ****   * @note   I/O mode can be Input mode, General purpose output, Alternate function mode or Analog.
 258:C:/Users/12522/STM32Cube/Repository/STM32Cube_FW_G4_V1.5.0/Drivers/STM32G4xx_HAL_Driver/Inc\stm32g4xx_ll_gpio.h ****   * @note   Warning: only one pin can be passed as parameter.
 259:C:/Users/12522/STM32Cube/Repository/STM32Cube_FW_G4_V1.5.0/Drivers/STM32G4xx_HAL_Driver/Inc\stm32g4xx_ll_gpio.h ****   * @rmtoll MODER        MODEy         LL_GPIO_SetPinMode
 260:C:/Users/12522/STM32Cube/Repository/STM32Cube_FW_G4_V1.5.0/Drivers/STM32G4xx_HAL_Driver/Inc\stm32g4xx_ll_gpio.h ****   * @param  GPIOx GPIO Port
 261:C:/Users/12522/STM32Cube/Repository/STM32Cube_FW_G4_V1.5.0/Drivers/STM32G4xx_HAL_Driver/Inc\stm32g4xx_ll_gpio.h ****   * @param  Pin This parameter can be one of the following values:
 262:C:/Users/12522/STM32Cube/Repository/STM32Cube_FW_G4_V1.5.0/Drivers/STM32G4xx_HAL_Driver/Inc\stm32g4xx_ll_gpio.h ****   *         @arg @ref LL_GPIO_PIN_0
 263:C:/Users/12522/STM32Cube/Repository/STM32Cube_FW_G4_V1.5.0/Drivers/STM32G4xx_HAL_Driver/Inc\stm32g4xx_ll_gpio.h ****   *         @arg @ref LL_GPIO_PIN_1
 264:C:/Users/12522/STM32Cube/Repository/STM32Cube_FW_G4_V1.5.0/Drivers/STM32G4xx_HAL_Driver/Inc\stm32g4xx_ll_gpio.h ****   *         @arg @ref LL_GPIO_PIN_2
 265:C:/Users/12522/STM32Cube/Repository/STM32Cube_FW_G4_V1.5.0/Drivers/STM32G4xx_HAL_Driver/Inc\stm32g4xx_ll_gpio.h ****   *         @arg @ref LL_GPIO_PIN_3
 266:C:/Users/12522/STM32Cube/Repository/STM32Cube_FW_G4_V1.5.0/Drivers/STM32G4xx_HAL_Driver/Inc\stm32g4xx_ll_gpio.h ****   *         @arg @ref LL_GPIO_PIN_4
 267:C:/Users/12522/STM32Cube/Repository/STM32Cube_FW_G4_V1.5.0/Drivers/STM32G4xx_HAL_Driver/Inc\stm32g4xx_ll_gpio.h ****   *         @arg @ref LL_GPIO_PIN_5
 268:C:/Users/12522/STM32Cube/Repository/STM32Cube_FW_G4_V1.5.0/Drivers/STM32G4xx_HAL_Driver/Inc\stm32g4xx_ll_gpio.h ****   *         @arg @ref LL_GPIO_PIN_6
 269:C:/Users/12522/STM32Cube/Repository/STM32Cube_FW_G4_V1.5.0/Drivers/STM32G4xx_HAL_Driver/Inc\stm32g4xx_ll_gpio.h ****   *         @arg @ref LL_GPIO_PIN_7
 270:C:/Users/12522/STM32Cube/Repository/STM32Cube_FW_G4_V1.5.0/Drivers/STM32G4xx_HAL_Driver/Inc\stm32g4xx_ll_gpio.h ****   *         @arg @ref LL_GPIO_PIN_8
 271:C:/Users/12522/STM32Cube/Repository/STM32Cube_FW_G4_V1.5.0/Drivers/STM32G4xx_HAL_Driver/Inc\stm32g4xx_ll_gpio.h ****   *         @arg @ref LL_GPIO_PIN_9
 272:C:/Users/12522/STM32Cube/Repository/STM32Cube_FW_G4_V1.5.0/Drivers/STM32G4xx_HAL_Driver/Inc\stm32g4xx_ll_gpio.h ****   *         @arg @ref LL_GPIO_PIN_10
 273:C:/Users/12522/STM32Cube/Repository/STM32Cube_FW_G4_V1.5.0/Drivers/STM32G4xx_HAL_Driver/Inc\stm32g4xx_ll_gpio.h ****   *         @arg @ref LL_GPIO_PIN_11
 274:C:/Users/12522/STM32Cube/Repository/STM32Cube_FW_G4_V1.5.0/Drivers/STM32G4xx_HAL_Driver/Inc\stm32g4xx_ll_gpio.h ****   *         @arg @ref LL_GPIO_PIN_12
 275:C:/Users/12522/STM32Cube/Repository/STM32Cube_FW_G4_V1.5.0/Drivers/STM32G4xx_HAL_Driver/Inc\stm32g4xx_ll_gpio.h ****   *         @arg @ref LL_GPIO_PIN_13
 276:C:/Users/12522/STM32Cube/Repository/STM32Cube_FW_G4_V1.5.0/Drivers/STM32G4xx_HAL_Driver/Inc\stm32g4xx_ll_gpio.h ****   *         @arg @ref LL_GPIO_PIN_14
 277:C:/Users/12522/STM32Cube/Repository/STM32Cube_FW_G4_V1.5.0/Drivers/STM32G4xx_HAL_Driver/Inc\stm32g4xx_ll_gpio.h ****   *         @arg @ref LL_GPIO_PIN_15
 278:C:/Users/12522/STM32Cube/Repository/STM32Cube_FW_G4_V1.5.0/Drivers/STM32G4xx_HAL_Driver/Inc\stm32g4xx_ll_gpio.h ****   * @param  Mode This parameter can be one of the following values:
 279:C:/Users/12522/STM32Cube/Repository/STM32Cube_FW_G4_V1.5.0/Drivers/STM32G4xx_HAL_Driver/Inc\stm32g4xx_ll_gpio.h ****   *         @arg @ref LL_GPIO_MODE_INPUT
 280:C:/Users/12522/STM32Cube/Repository/STM32Cube_FW_G4_V1.5.0/Drivers/STM32G4xx_HAL_Driver/Inc\stm32g4xx_ll_gpio.h ****   *         @arg @ref LL_GPIO_MODE_OUTPUT
 281:C:/Users/12522/STM32Cube/Repository/STM32Cube_FW_G4_V1.5.0/Drivers/STM32G4xx_HAL_Driver/Inc\stm32g4xx_ll_gpio.h ****   *         @arg @ref LL_GPIO_MODE_ALTERNATE
 282:C:/Users/12522/STM32Cube/Repository/STM32Cube_FW_G4_V1.5.0/Drivers/STM32G4xx_HAL_Driver/Inc\stm32g4xx_ll_gpio.h ****   *         @arg @ref LL_GPIO_MODE_ANALOG
 283:C:/Users/12522/STM32Cube/Repository/STM32Cube_FW_G4_V1.5.0/Drivers/STM32G4xx_HAL_Driver/Inc\stm32g4xx_ll_gpio.h ****   * @retval None
 284:C:/Users/12522/STM32Cube/Repository/STM32Cube_FW_G4_V1.5.0/Drivers/STM32G4xx_HAL_Driver/Inc\stm32g4xx_ll_gpio.h ****   */
 285:C:/Users/12522/STM32Cube/Repository/STM32Cube_FW_G4_V1.5.0/Drivers/STM32G4xx_HAL_Driver/Inc\stm32g4xx_ll_gpio.h **** __STATIC_INLINE void LL_GPIO_SetPinMode(GPIO_TypeDef *GPIOx, uint32_t Pin, uint32_t Mode)
 286:C:/Users/12522/STM32Cube/Repository/STM32Cube_FW_G4_V1.5.0/Drivers/STM32G4xx_HAL_Driver/Inc\stm32g4xx_ll_gpio.h **** {
 287:C:/Users/12522/STM32Cube/Repository/STM32Cube_FW_G4_V1.5.0/Drivers/STM32G4xx_HAL_Driver/Inc\stm32g4xx_ll_gpio.h ****   MODIFY_REG(GPIOx->MODER, (GPIO_MODER_MODE0 << (POSITION_VAL(Pin) * 2U)), (Mode << (POSITION_VAL(P
 288:C:/Users/12522/STM32Cube/Repository/STM32Cube_FW_G4_V1.5.0/Drivers/STM32G4xx_HAL_Driver/Inc\stm32g4xx_ll_gpio.h **** }
 289:C:/Users/12522/STM32Cube/Repository/STM32Cube_FW_G4_V1.5.0/Drivers/STM32G4xx_HAL_Driver/Inc\stm32g4xx_ll_gpio.h **** 
 290:C:/Users/12522/STM32Cube/Repository/STM32Cube_FW_G4_V1.5.0/Drivers/STM32G4xx_HAL_Driver/Inc\stm32g4xx_ll_gpio.h **** /**
 291:C:/Users/12522/STM32Cube/Repository/STM32Cube_FW_G4_V1.5.0/Drivers/STM32G4xx_HAL_Driver/Inc\stm32g4xx_ll_gpio.h ****   * @brief  Return gpio mode for a dedicated pin on dedicated port.
 292:C:/Users/12522/STM32Cube/Repository/STM32Cube_FW_G4_V1.5.0/Drivers/STM32G4xx_HAL_Driver/Inc\stm32g4xx_ll_gpio.h ****   * @note   I/O mode can be Input mode, General purpose output, Alternate function mode or Analog.
 293:C:/Users/12522/STM32Cube/Repository/STM32Cube_FW_G4_V1.5.0/Drivers/STM32G4xx_HAL_Driver/Inc\stm32g4xx_ll_gpio.h ****   * @note   Warning: only one pin can be passed as parameter.
 294:C:/Users/12522/STM32Cube/Repository/STM32Cube_FW_G4_V1.5.0/Drivers/STM32G4xx_HAL_Driver/Inc\stm32g4xx_ll_gpio.h ****   * @rmtoll MODER        MODEy         LL_GPIO_GetPinMode
 295:C:/Users/12522/STM32Cube/Repository/STM32Cube_FW_G4_V1.5.0/Drivers/STM32G4xx_HAL_Driver/Inc\stm32g4xx_ll_gpio.h ****   * @param  GPIOx GPIO Port
 296:C:/Users/12522/STM32Cube/Repository/STM32Cube_FW_G4_V1.5.0/Drivers/STM32G4xx_HAL_Driver/Inc\stm32g4xx_ll_gpio.h ****   * @param  Pin This parameter can be one of the following values:
 297:C:/Users/12522/STM32Cube/Repository/STM32Cube_FW_G4_V1.5.0/Drivers/STM32G4xx_HAL_Driver/Inc\stm32g4xx_ll_gpio.h ****   *         @arg @ref LL_GPIO_PIN_0
ARM GAS  F:\msys64\tmp\cc5aZRcQ.s 			page 17


 298:C:/Users/12522/STM32Cube/Repository/STM32Cube_FW_G4_V1.5.0/Drivers/STM32G4xx_HAL_Driver/Inc\stm32g4xx_ll_gpio.h ****   *         @arg @ref LL_GPIO_PIN_1
 299:C:/Users/12522/STM32Cube/Repository/STM32Cube_FW_G4_V1.5.0/Drivers/STM32G4xx_HAL_Driver/Inc\stm32g4xx_ll_gpio.h ****   *         @arg @ref LL_GPIO_PIN_2
 300:C:/Users/12522/STM32Cube/Repository/STM32Cube_FW_G4_V1.5.0/Drivers/STM32G4xx_HAL_Driver/Inc\stm32g4xx_ll_gpio.h ****   *         @arg @ref LL_GPIO_PIN_3
 301:C:/Users/12522/STM32Cube/Repository/STM32Cube_FW_G4_V1.5.0/Drivers/STM32G4xx_HAL_Driver/Inc\stm32g4xx_ll_gpio.h ****   *         @arg @ref LL_GPIO_PIN_4
 302:C:/Users/12522/STM32Cube/Repository/STM32Cube_FW_G4_V1.5.0/Drivers/STM32G4xx_HAL_Driver/Inc\stm32g4xx_ll_gpio.h ****   *         @arg @ref LL_GPIO_PIN_5
 303:C:/Users/12522/STM32Cube/Repository/STM32Cube_FW_G4_V1.5.0/Drivers/STM32G4xx_HAL_Driver/Inc\stm32g4xx_ll_gpio.h ****   *         @arg @ref LL_GPIO_PIN_6
 304:C:/Users/12522/STM32Cube/Repository/STM32Cube_FW_G4_V1.5.0/Drivers/STM32G4xx_HAL_Driver/Inc\stm32g4xx_ll_gpio.h ****   *         @arg @ref LL_GPIO_PIN_7
 305:C:/Users/12522/STM32Cube/Repository/STM32Cube_FW_G4_V1.5.0/Drivers/STM32G4xx_HAL_Driver/Inc\stm32g4xx_ll_gpio.h ****   *         @arg @ref LL_GPIO_PIN_8
 306:C:/Users/12522/STM32Cube/Repository/STM32Cube_FW_G4_V1.5.0/Drivers/STM32G4xx_HAL_Driver/Inc\stm32g4xx_ll_gpio.h ****   *         @arg @ref LL_GPIO_PIN_9
 307:C:/Users/12522/STM32Cube/Repository/STM32Cube_FW_G4_V1.5.0/Drivers/STM32G4xx_HAL_Driver/Inc\stm32g4xx_ll_gpio.h ****   *         @arg @ref LL_GPIO_PIN_10
 308:C:/Users/12522/STM32Cube/Repository/STM32Cube_FW_G4_V1.5.0/Drivers/STM32G4xx_HAL_Driver/Inc\stm32g4xx_ll_gpio.h ****   *         @arg @ref LL_GPIO_PIN_11
 309:C:/Users/12522/STM32Cube/Repository/STM32Cube_FW_G4_V1.5.0/Drivers/STM32G4xx_HAL_Driver/Inc\stm32g4xx_ll_gpio.h ****   *         @arg @ref LL_GPIO_PIN_12
 310:C:/Users/12522/STM32Cube/Repository/STM32Cube_FW_G4_V1.5.0/Drivers/STM32G4xx_HAL_Driver/Inc\stm32g4xx_ll_gpio.h ****   *         @arg @ref LL_GPIO_PIN_13
 311:C:/Users/12522/STM32Cube/Repository/STM32Cube_FW_G4_V1.5.0/Drivers/STM32G4xx_HAL_Driver/Inc\stm32g4xx_ll_gpio.h ****   *         @arg @ref LL_GPIO_PIN_14
 312:C:/Users/12522/STM32Cube/Repository/STM32Cube_FW_G4_V1.5.0/Drivers/STM32G4xx_HAL_Driver/Inc\stm32g4xx_ll_gpio.h ****   *         @arg @ref LL_GPIO_PIN_15
 313:C:/Users/12522/STM32Cube/Repository/STM32Cube_FW_G4_V1.5.0/Drivers/STM32G4xx_HAL_Driver/Inc\stm32g4xx_ll_gpio.h ****   * @retval Returned value can be one of the following values:
 314:C:/Users/12522/STM32Cube/Repository/STM32Cube_FW_G4_V1.5.0/Drivers/STM32G4xx_HAL_Driver/Inc\stm32g4xx_ll_gpio.h ****   *         @arg @ref LL_GPIO_MODE_INPUT
 315:C:/Users/12522/STM32Cube/Repository/STM32Cube_FW_G4_V1.5.0/Drivers/STM32G4xx_HAL_Driver/Inc\stm32g4xx_ll_gpio.h ****   *         @arg @ref LL_GPIO_MODE_OUTPUT
 316:C:/Users/12522/STM32Cube/Repository/STM32Cube_FW_G4_V1.5.0/Drivers/STM32G4xx_HAL_Driver/Inc\stm32g4xx_ll_gpio.h ****   *         @arg @ref LL_GPIO_MODE_ALTERNATE
 317:C:/Users/12522/STM32Cube/Repository/STM32Cube_FW_G4_V1.5.0/Drivers/STM32G4xx_HAL_Driver/Inc\stm32g4xx_ll_gpio.h ****   *         @arg @ref LL_GPIO_MODE_ANALOG
 318:C:/Users/12522/STM32Cube/Repository/STM32Cube_FW_G4_V1.5.0/Drivers/STM32G4xx_HAL_Driver/Inc\stm32g4xx_ll_gpio.h ****   */
 319:C:/Users/12522/STM32Cube/Repository/STM32Cube_FW_G4_V1.5.0/Drivers/STM32G4xx_HAL_Driver/Inc\stm32g4xx_ll_gpio.h **** __STATIC_INLINE uint32_t LL_GPIO_GetPinMode(GPIO_TypeDef *GPIOx, uint32_t Pin)
 320:C:/Users/12522/STM32Cube/Repository/STM32Cube_FW_G4_V1.5.0/Drivers/STM32G4xx_HAL_Driver/Inc\stm32g4xx_ll_gpio.h **** {
 321:C:/Users/12522/STM32Cube/Repository/STM32Cube_FW_G4_V1.5.0/Drivers/STM32G4xx_HAL_Driver/Inc\stm32g4xx_ll_gpio.h ****   return (uint32_t)(READ_BIT(GPIOx->MODER,
 322:C:/Users/12522/STM32Cube/Repository/STM32Cube_FW_G4_V1.5.0/Drivers/STM32G4xx_HAL_Driver/Inc\stm32g4xx_ll_gpio.h ****                              (GPIO_MODER_MODE0 << (POSITION_VAL(Pin) * 2U))) >> (POSITION_VAL(Pin) 
 323:C:/Users/12522/STM32Cube/Repository/STM32Cube_FW_G4_V1.5.0/Drivers/STM32G4xx_HAL_Driver/Inc\stm32g4xx_ll_gpio.h **** }
 324:C:/Users/12522/STM32Cube/Repository/STM32Cube_FW_G4_V1.5.0/Drivers/STM32G4xx_HAL_Driver/Inc\stm32g4xx_ll_gpio.h **** 
 325:C:/Users/12522/STM32Cube/Repository/STM32Cube_FW_G4_V1.5.0/Drivers/STM32G4xx_HAL_Driver/Inc\stm32g4xx_ll_gpio.h **** /**
 326:C:/Users/12522/STM32Cube/Repository/STM32Cube_FW_G4_V1.5.0/Drivers/STM32G4xx_HAL_Driver/Inc\stm32g4xx_ll_gpio.h ****   * @brief  Configure gpio output type for several pins on dedicated port.
 327:C:/Users/12522/STM32Cube/Repository/STM32Cube_FW_G4_V1.5.0/Drivers/STM32G4xx_HAL_Driver/Inc\stm32g4xx_ll_gpio.h ****   * @note   Output type as to be set when gpio pin is in output or
 328:C:/Users/12522/STM32Cube/Repository/STM32Cube_FW_G4_V1.5.0/Drivers/STM32G4xx_HAL_Driver/Inc\stm32g4xx_ll_gpio.h ****   *         alternate modes. Possible type are Push-pull or Open-drain.
 329:C:/Users/12522/STM32Cube/Repository/STM32Cube_FW_G4_V1.5.0/Drivers/STM32G4xx_HAL_Driver/Inc\stm32g4xx_ll_gpio.h ****   * @rmtoll OTYPER       OTy           LL_GPIO_SetPinOutputType
 330:C:/Users/12522/STM32Cube/Repository/STM32Cube_FW_G4_V1.5.0/Drivers/STM32G4xx_HAL_Driver/Inc\stm32g4xx_ll_gpio.h ****   * @param  GPIOx GPIO Port
 331:C:/Users/12522/STM32Cube/Repository/STM32Cube_FW_G4_V1.5.0/Drivers/STM32G4xx_HAL_Driver/Inc\stm32g4xx_ll_gpio.h ****   * @param  PinMask This parameter can be a combination of the following values:
 332:C:/Users/12522/STM32Cube/Repository/STM32Cube_FW_G4_V1.5.0/Drivers/STM32G4xx_HAL_Driver/Inc\stm32g4xx_ll_gpio.h ****   *         @arg @ref LL_GPIO_PIN_0
 333:C:/Users/12522/STM32Cube/Repository/STM32Cube_FW_G4_V1.5.0/Drivers/STM32G4xx_HAL_Driver/Inc\stm32g4xx_ll_gpio.h ****   *         @arg @ref LL_GPIO_PIN_1
 334:C:/Users/12522/STM32Cube/Repository/STM32Cube_FW_G4_V1.5.0/Drivers/STM32G4xx_HAL_Driver/Inc\stm32g4xx_ll_gpio.h ****   *         @arg @ref LL_GPIO_PIN_2
 335:C:/Users/12522/STM32Cube/Repository/STM32Cube_FW_G4_V1.5.0/Drivers/STM32G4xx_HAL_Driver/Inc\stm32g4xx_ll_gpio.h ****   *         @arg @ref LL_GPIO_PIN_3
 336:C:/Users/12522/STM32Cube/Repository/STM32Cube_FW_G4_V1.5.0/Drivers/STM32G4xx_HAL_Driver/Inc\stm32g4xx_ll_gpio.h ****   *         @arg @ref LL_GPIO_PIN_4
 337:C:/Users/12522/STM32Cube/Repository/STM32Cube_FW_G4_V1.5.0/Drivers/STM32G4xx_HAL_Driver/Inc\stm32g4xx_ll_gpio.h ****   *         @arg @ref LL_GPIO_PIN_5
 338:C:/Users/12522/STM32Cube/Repository/STM32Cube_FW_G4_V1.5.0/Drivers/STM32G4xx_HAL_Driver/Inc\stm32g4xx_ll_gpio.h ****   *         @arg @ref LL_GPIO_PIN_6
 339:C:/Users/12522/STM32Cube/Repository/STM32Cube_FW_G4_V1.5.0/Drivers/STM32G4xx_HAL_Driver/Inc\stm32g4xx_ll_gpio.h ****   *         @arg @ref LL_GPIO_PIN_7
 340:C:/Users/12522/STM32Cube/Repository/STM32Cube_FW_G4_V1.5.0/Drivers/STM32G4xx_HAL_Driver/Inc\stm32g4xx_ll_gpio.h ****   *         @arg @ref LL_GPIO_PIN_8
 341:C:/Users/12522/STM32Cube/Repository/STM32Cube_FW_G4_V1.5.0/Drivers/STM32G4xx_HAL_Driver/Inc\stm32g4xx_ll_gpio.h ****   *         @arg @ref LL_GPIO_PIN_9
 342:C:/Users/12522/STM32Cube/Repository/STM32Cube_FW_G4_V1.5.0/Drivers/STM32G4xx_HAL_Driver/Inc\stm32g4xx_ll_gpio.h ****   *         @arg @ref LL_GPIO_PIN_10
 343:C:/Users/12522/STM32Cube/Repository/STM32Cube_FW_G4_V1.5.0/Drivers/STM32G4xx_HAL_Driver/Inc\stm32g4xx_ll_gpio.h ****   *         @arg @ref LL_GPIO_PIN_11
 344:C:/Users/12522/STM32Cube/Repository/STM32Cube_FW_G4_V1.5.0/Drivers/STM32G4xx_HAL_Driver/Inc\stm32g4xx_ll_gpio.h ****   *         @arg @ref LL_GPIO_PIN_12
 345:C:/Users/12522/STM32Cube/Repository/STM32Cube_FW_G4_V1.5.0/Drivers/STM32G4xx_HAL_Driver/Inc\stm32g4xx_ll_gpio.h ****   *         @arg @ref LL_GPIO_PIN_13
 346:C:/Users/12522/STM32Cube/Repository/STM32Cube_FW_G4_V1.5.0/Drivers/STM32G4xx_HAL_Driver/Inc\stm32g4xx_ll_gpio.h ****   *         @arg @ref LL_GPIO_PIN_14
 347:C:/Users/12522/STM32Cube/Repository/STM32Cube_FW_G4_V1.5.0/Drivers/STM32G4xx_HAL_Driver/Inc\stm32g4xx_ll_gpio.h ****   *         @arg @ref LL_GPIO_PIN_15
 348:C:/Users/12522/STM32Cube/Repository/STM32Cube_FW_G4_V1.5.0/Drivers/STM32G4xx_HAL_Driver/Inc\stm32g4xx_ll_gpio.h ****   *         @arg @ref LL_GPIO_PIN_ALL
 349:C:/Users/12522/STM32Cube/Repository/STM32Cube_FW_G4_V1.5.0/Drivers/STM32G4xx_HAL_Driver/Inc\stm32g4xx_ll_gpio.h ****   * @param  OutputType This parameter can be one of the following values:
 350:C:/Users/12522/STM32Cube/Repository/STM32Cube_FW_G4_V1.5.0/Drivers/STM32G4xx_HAL_Driver/Inc\stm32g4xx_ll_gpio.h ****   *         @arg @ref LL_GPIO_OUTPUT_PUSHPULL
 351:C:/Users/12522/STM32Cube/Repository/STM32Cube_FW_G4_V1.5.0/Drivers/STM32G4xx_HAL_Driver/Inc\stm32g4xx_ll_gpio.h ****   *         @arg @ref LL_GPIO_OUTPUT_OPENDRAIN
 352:C:/Users/12522/STM32Cube/Repository/STM32Cube_FW_G4_V1.5.0/Drivers/STM32G4xx_HAL_Driver/Inc\stm32g4xx_ll_gpio.h ****   * @retval None
 353:C:/Users/12522/STM32Cube/Repository/STM32Cube_FW_G4_V1.5.0/Drivers/STM32G4xx_HAL_Driver/Inc\stm32g4xx_ll_gpio.h ****   */
 354:C:/Users/12522/STM32Cube/Repository/STM32Cube_FW_G4_V1.5.0/Drivers/STM32G4xx_HAL_Driver/Inc\stm32g4xx_ll_gpio.h **** __STATIC_INLINE void LL_GPIO_SetPinOutputType(GPIO_TypeDef *GPIOx, uint32_t PinMask, uint32_t Outpu
ARM GAS  F:\msys64\tmp\cc5aZRcQ.s 			page 18


 355:C:/Users/12522/STM32Cube/Repository/STM32Cube_FW_G4_V1.5.0/Drivers/STM32G4xx_HAL_Driver/Inc\stm32g4xx_ll_gpio.h **** {
 356:C:/Users/12522/STM32Cube/Repository/STM32Cube_FW_G4_V1.5.0/Drivers/STM32G4xx_HAL_Driver/Inc\stm32g4xx_ll_gpio.h ****   MODIFY_REG(GPIOx->OTYPER, PinMask, (PinMask * OutputType));
 357:C:/Users/12522/STM32Cube/Repository/STM32Cube_FW_G4_V1.5.0/Drivers/STM32G4xx_HAL_Driver/Inc\stm32g4xx_ll_gpio.h **** }
 358:C:/Users/12522/STM32Cube/Repository/STM32Cube_FW_G4_V1.5.0/Drivers/STM32G4xx_HAL_Driver/Inc\stm32g4xx_ll_gpio.h **** 
 359:C:/Users/12522/STM32Cube/Repository/STM32Cube_FW_G4_V1.5.0/Drivers/STM32G4xx_HAL_Driver/Inc\stm32g4xx_ll_gpio.h **** /**
 360:C:/Users/12522/STM32Cube/Repository/STM32Cube_FW_G4_V1.5.0/Drivers/STM32G4xx_HAL_Driver/Inc\stm32g4xx_ll_gpio.h ****   * @brief  Return gpio output type for several pins on dedicated port.
 361:C:/Users/12522/STM32Cube/Repository/STM32Cube_FW_G4_V1.5.0/Drivers/STM32G4xx_HAL_Driver/Inc\stm32g4xx_ll_gpio.h ****   * @note   Output type as to be set when gpio pin is in output or
 362:C:/Users/12522/STM32Cube/Repository/STM32Cube_FW_G4_V1.5.0/Drivers/STM32G4xx_HAL_Driver/Inc\stm32g4xx_ll_gpio.h ****   *         alternate modes. Possible type are Push-pull or Open-drain.
 363:C:/Users/12522/STM32Cube/Repository/STM32Cube_FW_G4_V1.5.0/Drivers/STM32G4xx_HAL_Driver/Inc\stm32g4xx_ll_gpio.h ****   * @note   Warning: only one pin can be passed as parameter.
 364:C:/Users/12522/STM32Cube/Repository/STM32Cube_FW_G4_V1.5.0/Drivers/STM32G4xx_HAL_Driver/Inc\stm32g4xx_ll_gpio.h ****   * @rmtoll OTYPER       OTy           LL_GPIO_GetPinOutputType
 365:C:/Users/12522/STM32Cube/Repository/STM32Cube_FW_G4_V1.5.0/Drivers/STM32G4xx_HAL_Driver/Inc\stm32g4xx_ll_gpio.h ****   * @param  GPIOx GPIO Port
 366:C:/Users/12522/STM32Cube/Repository/STM32Cube_FW_G4_V1.5.0/Drivers/STM32G4xx_HAL_Driver/Inc\stm32g4xx_ll_gpio.h ****   * @param  Pin This parameter can be one of the following values:
 367:C:/Users/12522/STM32Cube/Repository/STM32Cube_FW_G4_V1.5.0/Drivers/STM32G4xx_HAL_Driver/Inc\stm32g4xx_ll_gpio.h ****   *         @arg @ref LL_GPIO_PIN_0
 368:C:/Users/12522/STM32Cube/Repository/STM32Cube_FW_G4_V1.5.0/Drivers/STM32G4xx_HAL_Driver/Inc\stm32g4xx_ll_gpio.h ****   *         @arg @ref LL_GPIO_PIN_1
 369:C:/Users/12522/STM32Cube/Repository/STM32Cube_FW_G4_V1.5.0/Drivers/STM32G4xx_HAL_Driver/Inc\stm32g4xx_ll_gpio.h ****   *         @arg @ref LL_GPIO_PIN_2
 370:C:/Users/12522/STM32Cube/Repository/STM32Cube_FW_G4_V1.5.0/Drivers/STM32G4xx_HAL_Driver/Inc\stm32g4xx_ll_gpio.h ****   *         @arg @ref LL_GPIO_PIN_3
 371:C:/Users/12522/STM32Cube/Repository/STM32Cube_FW_G4_V1.5.0/Drivers/STM32G4xx_HAL_Driver/Inc\stm32g4xx_ll_gpio.h ****   *         @arg @ref LL_GPIO_PIN_4
 372:C:/Users/12522/STM32Cube/Repository/STM32Cube_FW_G4_V1.5.0/Drivers/STM32G4xx_HAL_Driver/Inc\stm32g4xx_ll_gpio.h ****   *         @arg @ref LL_GPIO_PIN_5
 373:C:/Users/12522/STM32Cube/Repository/STM32Cube_FW_G4_V1.5.0/Drivers/STM32G4xx_HAL_Driver/Inc\stm32g4xx_ll_gpio.h ****   *         @arg @ref LL_GPIO_PIN_6
 374:C:/Users/12522/STM32Cube/Repository/STM32Cube_FW_G4_V1.5.0/Drivers/STM32G4xx_HAL_Driver/Inc\stm32g4xx_ll_gpio.h ****   *         @arg @ref LL_GPIO_PIN_7
 375:C:/Users/12522/STM32Cube/Repository/STM32Cube_FW_G4_V1.5.0/Drivers/STM32G4xx_HAL_Driver/Inc\stm32g4xx_ll_gpio.h ****   *         @arg @ref LL_GPIO_PIN_8
 376:C:/Users/12522/STM32Cube/Repository/STM32Cube_FW_G4_V1.5.0/Drivers/STM32G4xx_HAL_Driver/Inc\stm32g4xx_ll_gpio.h ****   *         @arg @ref LL_GPIO_PIN_9
 377:C:/Users/12522/STM32Cube/Repository/STM32Cube_FW_G4_V1.5.0/Drivers/STM32G4xx_HAL_Driver/Inc\stm32g4xx_ll_gpio.h ****   *         @arg @ref LL_GPIO_PIN_10
 378:C:/Users/12522/STM32Cube/Repository/STM32Cube_FW_G4_V1.5.0/Drivers/STM32G4xx_HAL_Driver/Inc\stm32g4xx_ll_gpio.h ****   *         @arg @ref LL_GPIO_PIN_11
 379:C:/Users/12522/STM32Cube/Repository/STM32Cube_FW_G4_V1.5.0/Drivers/STM32G4xx_HAL_Driver/Inc\stm32g4xx_ll_gpio.h ****   *         @arg @ref LL_GPIO_PIN_12
 380:C:/Users/12522/STM32Cube/Repository/STM32Cube_FW_G4_V1.5.0/Drivers/STM32G4xx_HAL_Driver/Inc\stm32g4xx_ll_gpio.h ****   *         @arg @ref LL_GPIO_PIN_13
 381:C:/Users/12522/STM32Cube/Repository/STM32Cube_FW_G4_V1.5.0/Drivers/STM32G4xx_HAL_Driver/Inc\stm32g4xx_ll_gpio.h ****   *         @arg @ref LL_GPIO_PIN_14
 382:C:/Users/12522/STM32Cube/Repository/STM32Cube_FW_G4_V1.5.0/Drivers/STM32G4xx_HAL_Driver/Inc\stm32g4xx_ll_gpio.h ****   *         @arg @ref LL_GPIO_PIN_15
 383:C:/Users/12522/STM32Cube/Repository/STM32Cube_FW_G4_V1.5.0/Drivers/STM32G4xx_HAL_Driver/Inc\stm32g4xx_ll_gpio.h ****   *         @arg @ref LL_GPIO_PIN_ALL
 384:C:/Users/12522/STM32Cube/Repository/STM32Cube_FW_G4_V1.5.0/Drivers/STM32G4xx_HAL_Driver/Inc\stm32g4xx_ll_gpio.h ****   * @retval Returned value can be one of the following values:
 385:C:/Users/12522/STM32Cube/Repository/STM32Cube_FW_G4_V1.5.0/Drivers/STM32G4xx_HAL_Driver/Inc\stm32g4xx_ll_gpio.h ****   *         @arg @ref LL_GPIO_OUTPUT_PUSHPULL
 386:C:/Users/12522/STM32Cube/Repository/STM32Cube_FW_G4_V1.5.0/Drivers/STM32G4xx_HAL_Driver/Inc\stm32g4xx_ll_gpio.h ****   *         @arg @ref LL_GPIO_OUTPUT_OPENDRAIN
 387:C:/Users/12522/STM32Cube/Repository/STM32Cube_FW_G4_V1.5.0/Drivers/STM32G4xx_HAL_Driver/Inc\stm32g4xx_ll_gpio.h ****   */
 388:C:/Users/12522/STM32Cube/Repository/STM32Cube_FW_G4_V1.5.0/Drivers/STM32G4xx_HAL_Driver/Inc\stm32g4xx_ll_gpio.h **** __STATIC_INLINE uint32_t LL_GPIO_GetPinOutputType(GPIO_TypeDef *GPIOx, uint32_t Pin)
 389:C:/Users/12522/STM32Cube/Repository/STM32Cube_FW_G4_V1.5.0/Drivers/STM32G4xx_HAL_Driver/Inc\stm32g4xx_ll_gpio.h **** {
 390:C:/Users/12522/STM32Cube/Repository/STM32Cube_FW_G4_V1.5.0/Drivers/STM32G4xx_HAL_Driver/Inc\stm32g4xx_ll_gpio.h ****   return (uint32_t)(READ_BIT(GPIOx->OTYPER, Pin) >> POSITION_VAL(Pin));
 391:C:/Users/12522/STM32Cube/Repository/STM32Cube_FW_G4_V1.5.0/Drivers/STM32G4xx_HAL_Driver/Inc\stm32g4xx_ll_gpio.h **** }
 392:C:/Users/12522/STM32Cube/Repository/STM32Cube_FW_G4_V1.5.0/Drivers/STM32G4xx_HAL_Driver/Inc\stm32g4xx_ll_gpio.h **** 
 393:C:/Users/12522/STM32Cube/Repository/STM32Cube_FW_G4_V1.5.0/Drivers/STM32G4xx_HAL_Driver/Inc\stm32g4xx_ll_gpio.h **** /**
 394:C:/Users/12522/STM32Cube/Repository/STM32Cube_FW_G4_V1.5.0/Drivers/STM32G4xx_HAL_Driver/Inc\stm32g4xx_ll_gpio.h ****   * @brief  Configure gpio speed for a dedicated pin on dedicated port.
 395:C:/Users/12522/STM32Cube/Repository/STM32Cube_FW_G4_V1.5.0/Drivers/STM32G4xx_HAL_Driver/Inc\stm32g4xx_ll_gpio.h ****   * @note   I/O speed can be Low, Medium, Fast or High speed.
 396:C:/Users/12522/STM32Cube/Repository/STM32Cube_FW_G4_V1.5.0/Drivers/STM32G4xx_HAL_Driver/Inc\stm32g4xx_ll_gpio.h ****   * @note   Warning: only one pin can be passed as parameter.
 397:C:/Users/12522/STM32Cube/Repository/STM32Cube_FW_G4_V1.5.0/Drivers/STM32G4xx_HAL_Driver/Inc\stm32g4xx_ll_gpio.h ****   * @note   Refer to datasheet for frequency specifications and the power
 398:C:/Users/12522/STM32Cube/Repository/STM32Cube_FW_G4_V1.5.0/Drivers/STM32G4xx_HAL_Driver/Inc\stm32g4xx_ll_gpio.h ****   *         supply and load conditions for each speed.
 399:C:/Users/12522/STM32Cube/Repository/STM32Cube_FW_G4_V1.5.0/Drivers/STM32G4xx_HAL_Driver/Inc\stm32g4xx_ll_gpio.h ****   * @rmtoll OSPEEDR      OSPEEDy       LL_GPIO_SetPinSpeed
 400:C:/Users/12522/STM32Cube/Repository/STM32Cube_FW_G4_V1.5.0/Drivers/STM32G4xx_HAL_Driver/Inc\stm32g4xx_ll_gpio.h ****   * @param  GPIOx GPIO Port
 401:C:/Users/12522/STM32Cube/Repository/STM32Cube_FW_G4_V1.5.0/Drivers/STM32G4xx_HAL_Driver/Inc\stm32g4xx_ll_gpio.h ****   * @param  Pin This parameter can be one of the following values:
 402:C:/Users/12522/STM32Cube/Repository/STM32Cube_FW_G4_V1.5.0/Drivers/STM32G4xx_HAL_Driver/Inc\stm32g4xx_ll_gpio.h ****   *         @arg @ref LL_GPIO_PIN_0
 403:C:/Users/12522/STM32Cube/Repository/STM32Cube_FW_G4_V1.5.0/Drivers/STM32G4xx_HAL_Driver/Inc\stm32g4xx_ll_gpio.h ****   *         @arg @ref LL_GPIO_PIN_1
 404:C:/Users/12522/STM32Cube/Repository/STM32Cube_FW_G4_V1.5.0/Drivers/STM32G4xx_HAL_Driver/Inc\stm32g4xx_ll_gpio.h ****   *         @arg @ref LL_GPIO_PIN_2
 405:C:/Users/12522/STM32Cube/Repository/STM32Cube_FW_G4_V1.5.0/Drivers/STM32G4xx_HAL_Driver/Inc\stm32g4xx_ll_gpio.h ****   *         @arg @ref LL_GPIO_PIN_3
 406:C:/Users/12522/STM32Cube/Repository/STM32Cube_FW_G4_V1.5.0/Drivers/STM32G4xx_HAL_Driver/Inc\stm32g4xx_ll_gpio.h ****   *         @arg @ref LL_GPIO_PIN_4
 407:C:/Users/12522/STM32Cube/Repository/STM32Cube_FW_G4_V1.5.0/Drivers/STM32G4xx_HAL_Driver/Inc\stm32g4xx_ll_gpio.h ****   *         @arg @ref LL_GPIO_PIN_5
 408:C:/Users/12522/STM32Cube/Repository/STM32Cube_FW_G4_V1.5.0/Drivers/STM32G4xx_HAL_Driver/Inc\stm32g4xx_ll_gpio.h ****   *         @arg @ref LL_GPIO_PIN_6
 409:C:/Users/12522/STM32Cube/Repository/STM32Cube_FW_G4_V1.5.0/Drivers/STM32G4xx_HAL_Driver/Inc\stm32g4xx_ll_gpio.h ****   *         @arg @ref LL_GPIO_PIN_7
 410:C:/Users/12522/STM32Cube/Repository/STM32Cube_FW_G4_V1.5.0/Drivers/STM32G4xx_HAL_Driver/Inc\stm32g4xx_ll_gpio.h ****   *         @arg @ref LL_GPIO_PIN_8
 411:C:/Users/12522/STM32Cube/Repository/STM32Cube_FW_G4_V1.5.0/Drivers/STM32G4xx_HAL_Driver/Inc\stm32g4xx_ll_gpio.h ****   *         @arg @ref LL_GPIO_PIN_9
ARM GAS  F:\msys64\tmp\cc5aZRcQ.s 			page 19


 412:C:/Users/12522/STM32Cube/Repository/STM32Cube_FW_G4_V1.5.0/Drivers/STM32G4xx_HAL_Driver/Inc\stm32g4xx_ll_gpio.h ****   *         @arg @ref LL_GPIO_PIN_10
 413:C:/Users/12522/STM32Cube/Repository/STM32Cube_FW_G4_V1.5.0/Drivers/STM32G4xx_HAL_Driver/Inc\stm32g4xx_ll_gpio.h ****   *         @arg @ref LL_GPIO_PIN_11
 414:C:/Users/12522/STM32Cube/Repository/STM32Cube_FW_G4_V1.5.0/Drivers/STM32G4xx_HAL_Driver/Inc\stm32g4xx_ll_gpio.h ****   *         @arg @ref LL_GPIO_PIN_12
 415:C:/Users/12522/STM32Cube/Repository/STM32Cube_FW_G4_V1.5.0/Drivers/STM32G4xx_HAL_Driver/Inc\stm32g4xx_ll_gpio.h ****   *         @arg @ref LL_GPIO_PIN_13
 416:C:/Users/12522/STM32Cube/Repository/STM32Cube_FW_G4_V1.5.0/Drivers/STM32G4xx_HAL_Driver/Inc\stm32g4xx_ll_gpio.h ****   *         @arg @ref LL_GPIO_PIN_14
 417:C:/Users/12522/STM32Cube/Repository/STM32Cube_FW_G4_V1.5.0/Drivers/STM32G4xx_HAL_Driver/Inc\stm32g4xx_ll_gpio.h ****   *         @arg @ref LL_GPIO_PIN_15
 418:C:/Users/12522/STM32Cube/Repository/STM32Cube_FW_G4_V1.5.0/Drivers/STM32G4xx_HAL_Driver/Inc\stm32g4xx_ll_gpio.h ****   * @param  Speed This parameter can be one of the following values:
 419:C:/Users/12522/STM32Cube/Repository/STM32Cube_FW_G4_V1.5.0/Drivers/STM32G4xx_HAL_Driver/Inc\stm32g4xx_ll_gpio.h ****   *         @arg @ref LL_GPIO_SPEED_FREQ_LOW
 420:C:/Users/12522/STM32Cube/Repository/STM32Cube_FW_G4_V1.5.0/Drivers/STM32G4xx_HAL_Driver/Inc\stm32g4xx_ll_gpio.h ****   *         @arg @ref LL_GPIO_SPEED_FREQ_MEDIUM
 421:C:/Users/12522/STM32Cube/Repository/STM32Cube_FW_G4_V1.5.0/Drivers/STM32G4xx_HAL_Driver/Inc\stm32g4xx_ll_gpio.h ****   *         @arg @ref LL_GPIO_SPEED_FREQ_HIGH
 422:C:/Users/12522/STM32Cube/Repository/STM32Cube_FW_G4_V1.5.0/Drivers/STM32G4xx_HAL_Driver/Inc\stm32g4xx_ll_gpio.h ****   *         @arg @ref LL_GPIO_SPEED_FREQ_VERY_HIGH
 423:C:/Users/12522/STM32Cube/Repository/STM32Cube_FW_G4_V1.5.0/Drivers/STM32G4xx_HAL_Driver/Inc\stm32g4xx_ll_gpio.h ****   * @retval None
 424:C:/Users/12522/STM32Cube/Repository/STM32Cube_FW_G4_V1.5.0/Drivers/STM32G4xx_HAL_Driver/Inc\stm32g4xx_ll_gpio.h ****   */
 425:C:/Users/12522/STM32Cube/Repository/STM32Cube_FW_G4_V1.5.0/Drivers/STM32G4xx_HAL_Driver/Inc\stm32g4xx_ll_gpio.h **** __STATIC_INLINE void LL_GPIO_SetPinSpeed(GPIO_TypeDef *GPIOx, uint32_t Pin, uint32_t  Speed)
 426:C:/Users/12522/STM32Cube/Repository/STM32Cube_FW_G4_V1.5.0/Drivers/STM32G4xx_HAL_Driver/Inc\stm32g4xx_ll_gpio.h **** {
 427:C:/Users/12522/STM32Cube/Repository/STM32Cube_FW_G4_V1.5.0/Drivers/STM32G4xx_HAL_Driver/Inc\stm32g4xx_ll_gpio.h ****   MODIFY_REG(GPIOx->OSPEEDR, (GPIO_OSPEEDR_OSPEED0 << (POSITION_VAL(Pin) * 2U)),
 428:C:/Users/12522/STM32Cube/Repository/STM32Cube_FW_G4_V1.5.0/Drivers/STM32G4xx_HAL_Driver/Inc\stm32g4xx_ll_gpio.h ****              (Speed << (POSITION_VAL(Pin) * 2U)));
 429:C:/Users/12522/STM32Cube/Repository/STM32Cube_FW_G4_V1.5.0/Drivers/STM32G4xx_HAL_Driver/Inc\stm32g4xx_ll_gpio.h **** }
 430:C:/Users/12522/STM32Cube/Repository/STM32Cube_FW_G4_V1.5.0/Drivers/STM32G4xx_HAL_Driver/Inc\stm32g4xx_ll_gpio.h **** 
 431:C:/Users/12522/STM32Cube/Repository/STM32Cube_FW_G4_V1.5.0/Drivers/STM32G4xx_HAL_Driver/Inc\stm32g4xx_ll_gpio.h **** /**
 432:C:/Users/12522/STM32Cube/Repository/STM32Cube_FW_G4_V1.5.0/Drivers/STM32G4xx_HAL_Driver/Inc\stm32g4xx_ll_gpio.h ****   * @brief  Return gpio speed for a dedicated pin on dedicated port.
 433:C:/Users/12522/STM32Cube/Repository/STM32Cube_FW_G4_V1.5.0/Drivers/STM32G4xx_HAL_Driver/Inc\stm32g4xx_ll_gpio.h ****   * @note   I/O speed can be Low, Medium, Fast or High speed.
 434:C:/Users/12522/STM32Cube/Repository/STM32Cube_FW_G4_V1.5.0/Drivers/STM32G4xx_HAL_Driver/Inc\stm32g4xx_ll_gpio.h ****   * @note   Warning: only one pin can be passed as parameter.
 435:C:/Users/12522/STM32Cube/Repository/STM32Cube_FW_G4_V1.5.0/Drivers/STM32G4xx_HAL_Driver/Inc\stm32g4xx_ll_gpio.h ****   * @note   Refer to datasheet for frequency specifications and the power
 436:C:/Users/12522/STM32Cube/Repository/STM32Cube_FW_G4_V1.5.0/Drivers/STM32G4xx_HAL_Driver/Inc\stm32g4xx_ll_gpio.h ****   *         supply and load conditions for each speed.
 437:C:/Users/12522/STM32Cube/Repository/STM32Cube_FW_G4_V1.5.0/Drivers/STM32G4xx_HAL_Driver/Inc\stm32g4xx_ll_gpio.h ****   * @rmtoll OSPEEDR      OSPEEDy       LL_GPIO_GetPinSpeed
 438:C:/Users/12522/STM32Cube/Repository/STM32Cube_FW_G4_V1.5.0/Drivers/STM32G4xx_HAL_Driver/Inc\stm32g4xx_ll_gpio.h ****   * @param  GPIOx GPIO Port
 439:C:/Users/12522/STM32Cube/Repository/STM32Cube_FW_G4_V1.5.0/Drivers/STM32G4xx_HAL_Driver/Inc\stm32g4xx_ll_gpio.h ****   * @param  Pin This parameter can be one of the following values:
 440:C:/Users/12522/STM32Cube/Repository/STM32Cube_FW_G4_V1.5.0/Drivers/STM32G4xx_HAL_Driver/Inc\stm32g4xx_ll_gpio.h ****   *         @arg @ref LL_GPIO_PIN_0
 441:C:/Users/12522/STM32Cube/Repository/STM32Cube_FW_G4_V1.5.0/Drivers/STM32G4xx_HAL_Driver/Inc\stm32g4xx_ll_gpio.h ****   *         @arg @ref LL_GPIO_PIN_1
 442:C:/Users/12522/STM32Cube/Repository/STM32Cube_FW_G4_V1.5.0/Drivers/STM32G4xx_HAL_Driver/Inc\stm32g4xx_ll_gpio.h ****   *         @arg @ref LL_GPIO_PIN_2
 443:C:/Users/12522/STM32Cube/Repository/STM32Cube_FW_G4_V1.5.0/Drivers/STM32G4xx_HAL_Driver/Inc\stm32g4xx_ll_gpio.h ****   *         @arg @ref LL_GPIO_PIN_3
 444:C:/Users/12522/STM32Cube/Repository/STM32Cube_FW_G4_V1.5.0/Drivers/STM32G4xx_HAL_Driver/Inc\stm32g4xx_ll_gpio.h ****   *         @arg @ref LL_GPIO_PIN_4
 445:C:/Users/12522/STM32Cube/Repository/STM32Cube_FW_G4_V1.5.0/Drivers/STM32G4xx_HAL_Driver/Inc\stm32g4xx_ll_gpio.h ****   *         @arg @ref LL_GPIO_PIN_5
 446:C:/Users/12522/STM32Cube/Repository/STM32Cube_FW_G4_V1.5.0/Drivers/STM32G4xx_HAL_Driver/Inc\stm32g4xx_ll_gpio.h ****   *         @arg @ref LL_GPIO_PIN_6
 447:C:/Users/12522/STM32Cube/Repository/STM32Cube_FW_G4_V1.5.0/Drivers/STM32G4xx_HAL_Driver/Inc\stm32g4xx_ll_gpio.h ****   *         @arg @ref LL_GPIO_PIN_7
 448:C:/Users/12522/STM32Cube/Repository/STM32Cube_FW_G4_V1.5.0/Drivers/STM32G4xx_HAL_Driver/Inc\stm32g4xx_ll_gpio.h ****   *         @arg @ref LL_GPIO_PIN_8
 449:C:/Users/12522/STM32Cube/Repository/STM32Cube_FW_G4_V1.5.0/Drivers/STM32G4xx_HAL_Driver/Inc\stm32g4xx_ll_gpio.h ****   *         @arg @ref LL_GPIO_PIN_9
 450:C:/Users/12522/STM32Cube/Repository/STM32Cube_FW_G4_V1.5.0/Drivers/STM32G4xx_HAL_Driver/Inc\stm32g4xx_ll_gpio.h ****   *         @arg @ref LL_GPIO_PIN_10
 451:C:/Users/12522/STM32Cube/Repository/STM32Cube_FW_G4_V1.5.0/Drivers/STM32G4xx_HAL_Driver/Inc\stm32g4xx_ll_gpio.h ****   *         @arg @ref LL_GPIO_PIN_11
 452:C:/Users/12522/STM32Cube/Repository/STM32Cube_FW_G4_V1.5.0/Drivers/STM32G4xx_HAL_Driver/Inc\stm32g4xx_ll_gpio.h ****   *         @arg @ref LL_GPIO_PIN_12
 453:C:/Users/12522/STM32Cube/Repository/STM32Cube_FW_G4_V1.5.0/Drivers/STM32G4xx_HAL_Driver/Inc\stm32g4xx_ll_gpio.h ****   *         @arg @ref LL_GPIO_PIN_13
 454:C:/Users/12522/STM32Cube/Repository/STM32Cube_FW_G4_V1.5.0/Drivers/STM32G4xx_HAL_Driver/Inc\stm32g4xx_ll_gpio.h ****   *         @arg @ref LL_GPIO_PIN_14
 455:C:/Users/12522/STM32Cube/Repository/STM32Cube_FW_G4_V1.5.0/Drivers/STM32G4xx_HAL_Driver/Inc\stm32g4xx_ll_gpio.h ****   *         @arg @ref LL_GPIO_PIN_15
 456:C:/Users/12522/STM32Cube/Repository/STM32Cube_FW_G4_V1.5.0/Drivers/STM32G4xx_HAL_Driver/Inc\stm32g4xx_ll_gpio.h ****   * @retval Returned value can be one of the following values:
 457:C:/Users/12522/STM32Cube/Repository/STM32Cube_FW_G4_V1.5.0/Drivers/STM32G4xx_HAL_Driver/Inc\stm32g4xx_ll_gpio.h ****   *         @arg @ref LL_GPIO_SPEED_FREQ_LOW
 458:C:/Users/12522/STM32Cube/Repository/STM32Cube_FW_G4_V1.5.0/Drivers/STM32G4xx_HAL_Driver/Inc\stm32g4xx_ll_gpio.h ****   *         @arg @ref LL_GPIO_SPEED_FREQ_MEDIUM
 459:C:/Users/12522/STM32Cube/Repository/STM32Cube_FW_G4_V1.5.0/Drivers/STM32G4xx_HAL_Driver/Inc\stm32g4xx_ll_gpio.h ****   *         @arg @ref LL_GPIO_SPEED_FREQ_HIGH
 460:C:/Users/12522/STM32Cube/Repository/STM32Cube_FW_G4_V1.5.0/Drivers/STM32G4xx_HAL_Driver/Inc\stm32g4xx_ll_gpio.h ****   *         @arg @ref LL_GPIO_SPEED_FREQ_VERY_HIGH
 461:C:/Users/12522/STM32Cube/Repository/STM32Cube_FW_G4_V1.5.0/Drivers/STM32G4xx_HAL_Driver/Inc\stm32g4xx_ll_gpio.h ****   */
 462:C:/Users/12522/STM32Cube/Repository/STM32Cube_FW_G4_V1.5.0/Drivers/STM32G4xx_HAL_Driver/Inc\stm32g4xx_ll_gpio.h **** __STATIC_INLINE uint32_t LL_GPIO_GetPinSpeed(GPIO_TypeDef *GPIOx, uint32_t Pin)
 463:C:/Users/12522/STM32Cube/Repository/STM32Cube_FW_G4_V1.5.0/Drivers/STM32G4xx_HAL_Driver/Inc\stm32g4xx_ll_gpio.h **** {
 464:C:/Users/12522/STM32Cube/Repository/STM32Cube_FW_G4_V1.5.0/Drivers/STM32G4xx_HAL_Driver/Inc\stm32g4xx_ll_gpio.h ****   return (uint32_t)(READ_BIT(GPIOx->OSPEEDR,
 465:C:/Users/12522/STM32Cube/Repository/STM32Cube_FW_G4_V1.5.0/Drivers/STM32G4xx_HAL_Driver/Inc\stm32g4xx_ll_gpio.h ****                              (GPIO_OSPEEDR_OSPEED0 << (POSITION_VAL(Pin) * 2U))) >> (POSITION_VAL(P
 466:C:/Users/12522/STM32Cube/Repository/STM32Cube_FW_G4_V1.5.0/Drivers/STM32G4xx_HAL_Driver/Inc\stm32g4xx_ll_gpio.h **** }
 467:C:/Users/12522/STM32Cube/Repository/STM32Cube_FW_G4_V1.5.0/Drivers/STM32G4xx_HAL_Driver/Inc\stm32g4xx_ll_gpio.h **** 
 468:C:/Users/12522/STM32Cube/Repository/STM32Cube_FW_G4_V1.5.0/Drivers/STM32G4xx_HAL_Driver/Inc\stm32g4xx_ll_gpio.h **** /**
ARM GAS  F:\msys64\tmp\cc5aZRcQ.s 			page 20


 469:C:/Users/12522/STM32Cube/Repository/STM32Cube_FW_G4_V1.5.0/Drivers/STM32G4xx_HAL_Driver/Inc\stm32g4xx_ll_gpio.h ****   * @brief  Configure gpio pull-up or pull-down for a dedicated pin on a dedicated port.
 470:C:/Users/12522/STM32Cube/Repository/STM32Cube_FW_G4_V1.5.0/Drivers/STM32G4xx_HAL_Driver/Inc\stm32g4xx_ll_gpio.h ****   * @note   Warning: only one pin can be passed as parameter.
 471:C:/Users/12522/STM32Cube/Repository/STM32Cube_FW_G4_V1.5.0/Drivers/STM32G4xx_HAL_Driver/Inc\stm32g4xx_ll_gpio.h ****   * @rmtoll PUPDR        PUPDy         LL_GPIO_SetPinPull
 472:C:/Users/12522/STM32Cube/Repository/STM32Cube_FW_G4_V1.5.0/Drivers/STM32G4xx_HAL_Driver/Inc\stm32g4xx_ll_gpio.h ****   * @param  GPIOx GPIO Port
 473:C:/Users/12522/STM32Cube/Repository/STM32Cube_FW_G4_V1.5.0/Drivers/STM32G4xx_HAL_Driver/Inc\stm32g4xx_ll_gpio.h ****   * @param  Pin This parameter can be one of the following values:
 474:C:/Users/12522/STM32Cube/Repository/STM32Cube_FW_G4_V1.5.0/Drivers/STM32G4xx_HAL_Driver/Inc\stm32g4xx_ll_gpio.h ****   *         @arg @ref LL_GPIO_PIN_0
 475:C:/Users/12522/STM32Cube/Repository/STM32Cube_FW_G4_V1.5.0/Drivers/STM32G4xx_HAL_Driver/Inc\stm32g4xx_ll_gpio.h ****   *         @arg @ref LL_GPIO_PIN_1
 476:C:/Users/12522/STM32Cube/Repository/STM32Cube_FW_G4_V1.5.0/Drivers/STM32G4xx_HAL_Driver/Inc\stm32g4xx_ll_gpio.h ****   *         @arg @ref LL_GPIO_PIN_2
 477:C:/Users/12522/STM32Cube/Repository/STM32Cube_FW_G4_V1.5.0/Drivers/STM32G4xx_HAL_Driver/Inc\stm32g4xx_ll_gpio.h ****   *         @arg @ref LL_GPIO_PIN_3
 478:C:/Users/12522/STM32Cube/Repository/STM32Cube_FW_G4_V1.5.0/Drivers/STM32G4xx_HAL_Driver/Inc\stm32g4xx_ll_gpio.h ****   *         @arg @ref LL_GPIO_PIN_4
 479:C:/Users/12522/STM32Cube/Repository/STM32Cube_FW_G4_V1.5.0/Drivers/STM32G4xx_HAL_Driver/Inc\stm32g4xx_ll_gpio.h ****   *         @arg @ref LL_GPIO_PIN_5
 480:C:/Users/12522/STM32Cube/Repository/STM32Cube_FW_G4_V1.5.0/Drivers/STM32G4xx_HAL_Driver/Inc\stm32g4xx_ll_gpio.h ****   *         @arg @ref LL_GPIO_PIN_6
 481:C:/Users/12522/STM32Cube/Repository/STM32Cube_FW_G4_V1.5.0/Drivers/STM32G4xx_HAL_Driver/Inc\stm32g4xx_ll_gpio.h ****   *         @arg @ref LL_GPIO_PIN_7
 482:C:/Users/12522/STM32Cube/Repository/STM32Cube_FW_G4_V1.5.0/Drivers/STM32G4xx_HAL_Driver/Inc\stm32g4xx_ll_gpio.h ****   *         @arg @ref LL_GPIO_PIN_8
 483:C:/Users/12522/STM32Cube/Repository/STM32Cube_FW_G4_V1.5.0/Drivers/STM32G4xx_HAL_Driver/Inc\stm32g4xx_ll_gpio.h ****   *         @arg @ref LL_GPIO_PIN_9
 484:C:/Users/12522/STM32Cube/Repository/STM32Cube_FW_G4_V1.5.0/Drivers/STM32G4xx_HAL_Driver/Inc\stm32g4xx_ll_gpio.h ****   *         @arg @ref LL_GPIO_PIN_10
 485:C:/Users/12522/STM32Cube/Repository/STM32Cube_FW_G4_V1.5.0/Drivers/STM32G4xx_HAL_Driver/Inc\stm32g4xx_ll_gpio.h ****   *         @arg @ref LL_GPIO_PIN_11
 486:C:/Users/12522/STM32Cube/Repository/STM32Cube_FW_G4_V1.5.0/Drivers/STM32G4xx_HAL_Driver/Inc\stm32g4xx_ll_gpio.h ****   *         @arg @ref LL_GPIO_PIN_12
 487:C:/Users/12522/STM32Cube/Repository/STM32Cube_FW_G4_V1.5.0/Drivers/STM32G4xx_HAL_Driver/Inc\stm32g4xx_ll_gpio.h ****   *         @arg @ref LL_GPIO_PIN_13
 488:C:/Users/12522/STM32Cube/Repository/STM32Cube_FW_G4_V1.5.0/Drivers/STM32G4xx_HAL_Driver/Inc\stm32g4xx_ll_gpio.h ****   *         @arg @ref LL_GPIO_PIN_14
 489:C:/Users/12522/STM32Cube/Repository/STM32Cube_FW_G4_V1.5.0/Drivers/STM32G4xx_HAL_Driver/Inc\stm32g4xx_ll_gpio.h ****   *         @arg @ref LL_GPIO_PIN_15
 490:C:/Users/12522/STM32Cube/Repository/STM32Cube_FW_G4_V1.5.0/Drivers/STM32G4xx_HAL_Driver/Inc\stm32g4xx_ll_gpio.h ****   * @param  Pull This parameter can be one of the following values:
 491:C:/Users/12522/STM32Cube/Repository/STM32Cube_FW_G4_V1.5.0/Drivers/STM32G4xx_HAL_Driver/Inc\stm32g4xx_ll_gpio.h ****   *         @arg @ref LL_GPIO_PULL_NO
 492:C:/Users/12522/STM32Cube/Repository/STM32Cube_FW_G4_V1.5.0/Drivers/STM32G4xx_HAL_Driver/Inc\stm32g4xx_ll_gpio.h ****   *         @arg @ref LL_GPIO_PULL_UP
 493:C:/Users/12522/STM32Cube/Repository/STM32Cube_FW_G4_V1.5.0/Drivers/STM32G4xx_HAL_Driver/Inc\stm32g4xx_ll_gpio.h ****   *         @arg @ref LL_GPIO_PULL_DOWN
 494:C:/Users/12522/STM32Cube/Repository/STM32Cube_FW_G4_V1.5.0/Drivers/STM32G4xx_HAL_Driver/Inc\stm32g4xx_ll_gpio.h ****   * @retval None
 495:C:/Users/12522/STM32Cube/Repository/STM32Cube_FW_G4_V1.5.0/Drivers/STM32G4xx_HAL_Driver/Inc\stm32g4xx_ll_gpio.h ****   */
 496:C:/Users/12522/STM32Cube/Repository/STM32Cube_FW_G4_V1.5.0/Drivers/STM32G4xx_HAL_Driver/Inc\stm32g4xx_ll_gpio.h **** __STATIC_INLINE void LL_GPIO_SetPinPull(GPIO_TypeDef *GPIOx, uint32_t Pin, uint32_t Pull)
 497:C:/Users/12522/STM32Cube/Repository/STM32Cube_FW_G4_V1.5.0/Drivers/STM32G4xx_HAL_Driver/Inc\stm32g4xx_ll_gpio.h **** {
 498:C:/Users/12522/STM32Cube/Repository/STM32Cube_FW_G4_V1.5.0/Drivers/STM32G4xx_HAL_Driver/Inc\stm32g4xx_ll_gpio.h ****   MODIFY_REG(GPIOx->PUPDR, (GPIO_PUPDR_PUPD0 << (POSITION_VAL(Pin) * 2U)), (Pull << (POSITION_VAL(P
 499:C:/Users/12522/STM32Cube/Repository/STM32Cube_FW_G4_V1.5.0/Drivers/STM32G4xx_HAL_Driver/Inc\stm32g4xx_ll_gpio.h **** }
 500:C:/Users/12522/STM32Cube/Repository/STM32Cube_FW_G4_V1.5.0/Drivers/STM32G4xx_HAL_Driver/Inc\stm32g4xx_ll_gpio.h **** 
 501:C:/Users/12522/STM32Cube/Repository/STM32Cube_FW_G4_V1.5.0/Drivers/STM32G4xx_HAL_Driver/Inc\stm32g4xx_ll_gpio.h **** /**
 502:C:/Users/12522/STM32Cube/Repository/STM32Cube_FW_G4_V1.5.0/Drivers/STM32G4xx_HAL_Driver/Inc\stm32g4xx_ll_gpio.h ****   * @brief  Return gpio pull-up or pull-down for a dedicated pin on a dedicated port
 503:C:/Users/12522/STM32Cube/Repository/STM32Cube_FW_G4_V1.5.0/Drivers/STM32G4xx_HAL_Driver/Inc\stm32g4xx_ll_gpio.h ****   * @note   Warning: only one pin can be passed as parameter.
 504:C:/Users/12522/STM32Cube/Repository/STM32Cube_FW_G4_V1.5.0/Drivers/STM32G4xx_HAL_Driver/Inc\stm32g4xx_ll_gpio.h ****   * @rmtoll PUPDR        PUPDy         LL_GPIO_GetPinPull
 505:C:/Users/12522/STM32Cube/Repository/STM32Cube_FW_G4_V1.5.0/Drivers/STM32G4xx_HAL_Driver/Inc\stm32g4xx_ll_gpio.h ****   * @param  GPIOx GPIO Port
 506:C:/Users/12522/STM32Cube/Repository/STM32Cube_FW_G4_V1.5.0/Drivers/STM32G4xx_HAL_Driver/Inc\stm32g4xx_ll_gpio.h ****   * @param  Pin This parameter can be one of the following values:
 507:C:/Users/12522/STM32Cube/Repository/STM32Cube_FW_G4_V1.5.0/Drivers/STM32G4xx_HAL_Driver/Inc\stm32g4xx_ll_gpio.h ****   *         @arg @ref LL_GPIO_PIN_0
 508:C:/Users/12522/STM32Cube/Repository/STM32Cube_FW_G4_V1.5.0/Drivers/STM32G4xx_HAL_Driver/Inc\stm32g4xx_ll_gpio.h ****   *         @arg @ref LL_GPIO_PIN_1
 509:C:/Users/12522/STM32Cube/Repository/STM32Cube_FW_G4_V1.5.0/Drivers/STM32G4xx_HAL_Driver/Inc\stm32g4xx_ll_gpio.h ****   *         @arg @ref LL_GPIO_PIN_2
 510:C:/Users/12522/STM32Cube/Repository/STM32Cube_FW_G4_V1.5.0/Drivers/STM32G4xx_HAL_Driver/Inc\stm32g4xx_ll_gpio.h ****   *         @arg @ref LL_GPIO_PIN_3
 511:C:/Users/12522/STM32Cube/Repository/STM32Cube_FW_G4_V1.5.0/Drivers/STM32G4xx_HAL_Driver/Inc\stm32g4xx_ll_gpio.h ****   *         @arg @ref LL_GPIO_PIN_4
 512:C:/Users/12522/STM32Cube/Repository/STM32Cube_FW_G4_V1.5.0/Drivers/STM32G4xx_HAL_Driver/Inc\stm32g4xx_ll_gpio.h ****   *         @arg @ref LL_GPIO_PIN_5
 513:C:/Users/12522/STM32Cube/Repository/STM32Cube_FW_G4_V1.5.0/Drivers/STM32G4xx_HAL_Driver/Inc\stm32g4xx_ll_gpio.h ****   *         @arg @ref LL_GPIO_PIN_6
 514:C:/Users/12522/STM32Cube/Repository/STM32Cube_FW_G4_V1.5.0/Drivers/STM32G4xx_HAL_Driver/Inc\stm32g4xx_ll_gpio.h ****   *         @arg @ref LL_GPIO_PIN_7
 515:C:/Users/12522/STM32Cube/Repository/STM32Cube_FW_G4_V1.5.0/Drivers/STM32G4xx_HAL_Driver/Inc\stm32g4xx_ll_gpio.h ****   *         @arg @ref LL_GPIO_PIN_8
 516:C:/Users/12522/STM32Cube/Repository/STM32Cube_FW_G4_V1.5.0/Drivers/STM32G4xx_HAL_Driver/Inc\stm32g4xx_ll_gpio.h ****   *         @arg @ref LL_GPIO_PIN_9
 517:C:/Users/12522/STM32Cube/Repository/STM32Cube_FW_G4_V1.5.0/Drivers/STM32G4xx_HAL_Driver/Inc\stm32g4xx_ll_gpio.h ****   *         @arg @ref LL_GPIO_PIN_10
 518:C:/Users/12522/STM32Cube/Repository/STM32Cube_FW_G4_V1.5.0/Drivers/STM32G4xx_HAL_Driver/Inc\stm32g4xx_ll_gpio.h ****   *         @arg @ref LL_GPIO_PIN_11
 519:C:/Users/12522/STM32Cube/Repository/STM32Cube_FW_G4_V1.5.0/Drivers/STM32G4xx_HAL_Driver/Inc\stm32g4xx_ll_gpio.h ****   *         @arg @ref LL_GPIO_PIN_12
 520:C:/Users/12522/STM32Cube/Repository/STM32Cube_FW_G4_V1.5.0/Drivers/STM32G4xx_HAL_Driver/Inc\stm32g4xx_ll_gpio.h ****   *         @arg @ref LL_GPIO_PIN_13
 521:C:/Users/12522/STM32Cube/Repository/STM32Cube_FW_G4_V1.5.0/Drivers/STM32G4xx_HAL_Driver/Inc\stm32g4xx_ll_gpio.h ****   *         @arg @ref LL_GPIO_PIN_14
 522:C:/Users/12522/STM32Cube/Repository/STM32Cube_FW_G4_V1.5.0/Drivers/STM32G4xx_HAL_Driver/Inc\stm32g4xx_ll_gpio.h ****   *         @arg @ref LL_GPIO_PIN_15
 523:C:/Users/12522/STM32Cube/Repository/STM32Cube_FW_G4_V1.5.0/Drivers/STM32G4xx_HAL_Driver/Inc\stm32g4xx_ll_gpio.h ****   * @retval Returned value can be one of the following values:
 524:C:/Users/12522/STM32Cube/Repository/STM32Cube_FW_G4_V1.5.0/Drivers/STM32G4xx_HAL_Driver/Inc\stm32g4xx_ll_gpio.h ****   *         @arg @ref LL_GPIO_PULL_NO
 525:C:/Users/12522/STM32Cube/Repository/STM32Cube_FW_G4_V1.5.0/Drivers/STM32G4xx_HAL_Driver/Inc\stm32g4xx_ll_gpio.h ****   *         @arg @ref LL_GPIO_PULL_UP
ARM GAS  F:\msys64\tmp\cc5aZRcQ.s 			page 21


 526:C:/Users/12522/STM32Cube/Repository/STM32Cube_FW_G4_V1.5.0/Drivers/STM32G4xx_HAL_Driver/Inc\stm32g4xx_ll_gpio.h ****   *         @arg @ref LL_GPIO_PULL_DOWN
 527:C:/Users/12522/STM32Cube/Repository/STM32Cube_FW_G4_V1.5.0/Drivers/STM32G4xx_HAL_Driver/Inc\stm32g4xx_ll_gpio.h ****   */
 528:C:/Users/12522/STM32Cube/Repository/STM32Cube_FW_G4_V1.5.0/Drivers/STM32G4xx_HAL_Driver/Inc\stm32g4xx_ll_gpio.h **** __STATIC_INLINE uint32_t LL_GPIO_GetPinPull(GPIO_TypeDef *GPIOx, uint32_t Pin)
 529:C:/Users/12522/STM32Cube/Repository/STM32Cube_FW_G4_V1.5.0/Drivers/STM32G4xx_HAL_Driver/Inc\stm32g4xx_ll_gpio.h **** {
 530:C:/Users/12522/STM32Cube/Repository/STM32Cube_FW_G4_V1.5.0/Drivers/STM32G4xx_HAL_Driver/Inc\stm32g4xx_ll_gpio.h ****   return (uint32_t)(READ_BIT(GPIOx->PUPDR,
 531:C:/Users/12522/STM32Cube/Repository/STM32Cube_FW_G4_V1.5.0/Drivers/STM32G4xx_HAL_Driver/Inc\stm32g4xx_ll_gpio.h ****                              (GPIO_PUPDR_PUPD0 << (POSITION_VAL(Pin) * 2U))) >> (POSITION_VAL(Pin) 
 532:C:/Users/12522/STM32Cube/Repository/STM32Cube_FW_G4_V1.5.0/Drivers/STM32G4xx_HAL_Driver/Inc\stm32g4xx_ll_gpio.h **** }
 533:C:/Users/12522/STM32Cube/Repository/STM32Cube_FW_G4_V1.5.0/Drivers/STM32G4xx_HAL_Driver/Inc\stm32g4xx_ll_gpio.h **** 
 534:C:/Users/12522/STM32Cube/Repository/STM32Cube_FW_G4_V1.5.0/Drivers/STM32G4xx_HAL_Driver/Inc\stm32g4xx_ll_gpio.h **** /**
 535:C:/Users/12522/STM32Cube/Repository/STM32Cube_FW_G4_V1.5.0/Drivers/STM32G4xx_HAL_Driver/Inc\stm32g4xx_ll_gpio.h ****   * @brief  Configure gpio alternate function of a dedicated pin from 0 to 7 for a dedicated port.
 536:C:/Users/12522/STM32Cube/Repository/STM32Cube_FW_G4_V1.5.0/Drivers/STM32G4xx_HAL_Driver/Inc\stm32g4xx_ll_gpio.h ****   * @note   Possible values are from AF0 to AF15 depending on target.
 537:C:/Users/12522/STM32Cube/Repository/STM32Cube_FW_G4_V1.5.0/Drivers/STM32G4xx_HAL_Driver/Inc\stm32g4xx_ll_gpio.h ****   * @note   Warning: only one pin can be passed as parameter.
 538:C:/Users/12522/STM32Cube/Repository/STM32Cube_FW_G4_V1.5.0/Drivers/STM32G4xx_HAL_Driver/Inc\stm32g4xx_ll_gpio.h ****   * @rmtoll AFRL         AFSELy        LL_GPIO_SetAFPin_0_7
 539:C:/Users/12522/STM32Cube/Repository/STM32Cube_FW_G4_V1.5.0/Drivers/STM32G4xx_HAL_Driver/Inc\stm32g4xx_ll_gpio.h ****   * @param  GPIOx GPIO Port
 540:C:/Users/12522/STM32Cube/Repository/STM32Cube_FW_G4_V1.5.0/Drivers/STM32G4xx_HAL_Driver/Inc\stm32g4xx_ll_gpio.h ****   * @param  Pin This parameter can be one of the following values:
 541:C:/Users/12522/STM32Cube/Repository/STM32Cube_FW_G4_V1.5.0/Drivers/STM32G4xx_HAL_Driver/Inc\stm32g4xx_ll_gpio.h ****   *         @arg @ref LL_GPIO_PIN_0
 542:C:/Users/12522/STM32Cube/Repository/STM32Cube_FW_G4_V1.5.0/Drivers/STM32G4xx_HAL_Driver/Inc\stm32g4xx_ll_gpio.h ****   *         @arg @ref LL_GPIO_PIN_1
 543:C:/Users/12522/STM32Cube/Repository/STM32Cube_FW_G4_V1.5.0/Drivers/STM32G4xx_HAL_Driver/Inc\stm32g4xx_ll_gpio.h ****   *         @arg @ref LL_GPIO_PIN_2
 544:C:/Users/12522/STM32Cube/Repository/STM32Cube_FW_G4_V1.5.0/Drivers/STM32G4xx_HAL_Driver/Inc\stm32g4xx_ll_gpio.h ****   *         @arg @ref LL_GPIO_PIN_3
 545:C:/Users/12522/STM32Cube/Repository/STM32Cube_FW_G4_V1.5.0/Drivers/STM32G4xx_HAL_Driver/Inc\stm32g4xx_ll_gpio.h ****   *         @arg @ref LL_GPIO_PIN_4
 546:C:/Users/12522/STM32Cube/Repository/STM32Cube_FW_G4_V1.5.0/Drivers/STM32G4xx_HAL_Driver/Inc\stm32g4xx_ll_gpio.h ****   *         @arg @ref LL_GPIO_PIN_5
 547:C:/Users/12522/STM32Cube/Repository/STM32Cube_FW_G4_V1.5.0/Drivers/STM32G4xx_HAL_Driver/Inc\stm32g4xx_ll_gpio.h ****   *         @arg @ref LL_GPIO_PIN_6
 548:C:/Users/12522/STM32Cube/Repository/STM32Cube_FW_G4_V1.5.0/Drivers/STM32G4xx_HAL_Driver/Inc\stm32g4xx_ll_gpio.h ****   *         @arg @ref LL_GPIO_PIN_7
 549:C:/Users/12522/STM32Cube/Repository/STM32Cube_FW_G4_V1.5.0/Drivers/STM32G4xx_HAL_Driver/Inc\stm32g4xx_ll_gpio.h ****   * @param  Alternate This parameter can be one of the following values:
 550:C:/Users/12522/STM32Cube/Repository/STM32Cube_FW_G4_V1.5.0/Drivers/STM32G4xx_HAL_Driver/Inc\stm32g4xx_ll_gpio.h ****   *         @arg @ref LL_GPIO_AF_0
 551:C:/Users/12522/STM32Cube/Repository/STM32Cube_FW_G4_V1.5.0/Drivers/STM32G4xx_HAL_Driver/Inc\stm32g4xx_ll_gpio.h ****   *         @arg @ref LL_GPIO_AF_1
 552:C:/Users/12522/STM32Cube/Repository/STM32Cube_FW_G4_V1.5.0/Drivers/STM32G4xx_HAL_Driver/Inc\stm32g4xx_ll_gpio.h ****   *         @arg @ref LL_GPIO_AF_2
 553:C:/Users/12522/STM32Cube/Repository/STM32Cube_FW_G4_V1.5.0/Drivers/STM32G4xx_HAL_Driver/Inc\stm32g4xx_ll_gpio.h ****   *         @arg @ref LL_GPIO_AF_3
 554:C:/Users/12522/STM32Cube/Repository/STM32Cube_FW_G4_V1.5.0/Drivers/STM32G4xx_HAL_Driver/Inc\stm32g4xx_ll_gpio.h ****   *         @arg @ref LL_GPIO_AF_4
 555:C:/Users/12522/STM32Cube/Repository/STM32Cube_FW_G4_V1.5.0/Drivers/STM32G4xx_HAL_Driver/Inc\stm32g4xx_ll_gpio.h ****   *         @arg @ref LL_GPIO_AF_5
 556:C:/Users/12522/STM32Cube/Repository/STM32Cube_FW_G4_V1.5.0/Drivers/STM32G4xx_HAL_Driver/Inc\stm32g4xx_ll_gpio.h ****   *         @arg @ref LL_GPIO_AF_6
 557:C:/Users/12522/STM32Cube/Repository/STM32Cube_FW_G4_V1.5.0/Drivers/STM32G4xx_HAL_Driver/Inc\stm32g4xx_ll_gpio.h ****   *         @arg @ref LL_GPIO_AF_7
 558:C:/Users/12522/STM32Cube/Repository/STM32Cube_FW_G4_V1.5.0/Drivers/STM32G4xx_HAL_Driver/Inc\stm32g4xx_ll_gpio.h ****   *         @arg @ref LL_GPIO_AF_8
 559:C:/Users/12522/STM32Cube/Repository/STM32Cube_FW_G4_V1.5.0/Drivers/STM32G4xx_HAL_Driver/Inc\stm32g4xx_ll_gpio.h ****   *         @arg @ref LL_GPIO_AF_9
 560:C:/Users/12522/STM32Cube/Repository/STM32Cube_FW_G4_V1.5.0/Drivers/STM32G4xx_HAL_Driver/Inc\stm32g4xx_ll_gpio.h ****   *         @arg @ref LL_GPIO_AF_10
 561:C:/Users/12522/STM32Cube/Repository/STM32Cube_FW_G4_V1.5.0/Drivers/STM32G4xx_HAL_Driver/Inc\stm32g4xx_ll_gpio.h ****   *         @arg @ref LL_GPIO_AF_11
 562:C:/Users/12522/STM32Cube/Repository/STM32Cube_FW_G4_V1.5.0/Drivers/STM32G4xx_HAL_Driver/Inc\stm32g4xx_ll_gpio.h ****   *         @arg @ref LL_GPIO_AF_12
 563:C:/Users/12522/STM32Cube/Repository/STM32Cube_FW_G4_V1.5.0/Drivers/STM32G4xx_HAL_Driver/Inc\stm32g4xx_ll_gpio.h ****   *         @arg @ref LL_GPIO_AF_13
 564:C:/Users/12522/STM32Cube/Repository/STM32Cube_FW_G4_V1.5.0/Drivers/STM32G4xx_HAL_Driver/Inc\stm32g4xx_ll_gpio.h ****   *         @arg @ref LL_GPIO_AF_14
 565:C:/Users/12522/STM32Cube/Repository/STM32Cube_FW_G4_V1.5.0/Drivers/STM32G4xx_HAL_Driver/Inc\stm32g4xx_ll_gpio.h ****   *         @arg @ref LL_GPIO_AF_15
 566:C:/Users/12522/STM32Cube/Repository/STM32Cube_FW_G4_V1.5.0/Drivers/STM32G4xx_HAL_Driver/Inc\stm32g4xx_ll_gpio.h ****   * @retval None
 567:C:/Users/12522/STM32Cube/Repository/STM32Cube_FW_G4_V1.5.0/Drivers/STM32G4xx_HAL_Driver/Inc\stm32g4xx_ll_gpio.h ****   */
 568:C:/Users/12522/STM32Cube/Repository/STM32Cube_FW_G4_V1.5.0/Drivers/STM32G4xx_HAL_Driver/Inc\stm32g4xx_ll_gpio.h **** __STATIC_INLINE void LL_GPIO_SetAFPin_0_7(GPIO_TypeDef *GPIOx, uint32_t Pin, uint32_t Alternate)
 569:C:/Users/12522/STM32Cube/Repository/STM32Cube_FW_G4_V1.5.0/Drivers/STM32G4xx_HAL_Driver/Inc\stm32g4xx_ll_gpio.h **** {
 570:C:/Users/12522/STM32Cube/Repository/STM32Cube_FW_G4_V1.5.0/Drivers/STM32G4xx_HAL_Driver/Inc\stm32g4xx_ll_gpio.h ****   MODIFY_REG(GPIOx->AFR[0], (GPIO_AFRL_AFSEL0 << (POSITION_VAL(Pin) * 4U)),
 571:C:/Users/12522/STM32Cube/Repository/STM32Cube_FW_G4_V1.5.0/Drivers/STM32G4xx_HAL_Driver/Inc\stm32g4xx_ll_gpio.h ****              (Alternate << (POSITION_VAL(Pin) * 4U)));
 572:C:/Users/12522/STM32Cube/Repository/STM32Cube_FW_G4_V1.5.0/Drivers/STM32G4xx_HAL_Driver/Inc\stm32g4xx_ll_gpio.h **** }
 573:C:/Users/12522/STM32Cube/Repository/STM32Cube_FW_G4_V1.5.0/Drivers/STM32G4xx_HAL_Driver/Inc\stm32g4xx_ll_gpio.h **** 
 574:C:/Users/12522/STM32Cube/Repository/STM32Cube_FW_G4_V1.5.0/Drivers/STM32G4xx_HAL_Driver/Inc\stm32g4xx_ll_gpio.h **** /**
 575:C:/Users/12522/STM32Cube/Repository/STM32Cube_FW_G4_V1.5.0/Drivers/STM32G4xx_HAL_Driver/Inc\stm32g4xx_ll_gpio.h ****   * @brief  Return gpio alternate function of a dedicated pin from 0 to 7 for a dedicated port.
 576:C:/Users/12522/STM32Cube/Repository/STM32Cube_FW_G4_V1.5.0/Drivers/STM32G4xx_HAL_Driver/Inc\stm32g4xx_ll_gpio.h ****   * @rmtoll AFRL         AFSELy        LL_GPIO_GetAFPin_0_7
 577:C:/Users/12522/STM32Cube/Repository/STM32Cube_FW_G4_V1.5.0/Drivers/STM32G4xx_HAL_Driver/Inc\stm32g4xx_ll_gpio.h ****   * @param  GPIOx GPIO Port
 578:C:/Users/12522/STM32Cube/Repository/STM32Cube_FW_G4_V1.5.0/Drivers/STM32G4xx_HAL_Driver/Inc\stm32g4xx_ll_gpio.h ****   * @param  Pin This parameter can be one of the following values:
 579:C:/Users/12522/STM32Cube/Repository/STM32Cube_FW_G4_V1.5.0/Drivers/STM32G4xx_HAL_Driver/Inc\stm32g4xx_ll_gpio.h ****   *         @arg @ref LL_GPIO_PIN_0
 580:C:/Users/12522/STM32Cube/Repository/STM32Cube_FW_G4_V1.5.0/Drivers/STM32G4xx_HAL_Driver/Inc\stm32g4xx_ll_gpio.h ****   *         @arg @ref LL_GPIO_PIN_1
 581:C:/Users/12522/STM32Cube/Repository/STM32Cube_FW_G4_V1.5.0/Drivers/STM32G4xx_HAL_Driver/Inc\stm32g4xx_ll_gpio.h ****   *         @arg @ref LL_GPIO_PIN_2
 582:C:/Users/12522/STM32Cube/Repository/STM32Cube_FW_G4_V1.5.0/Drivers/STM32G4xx_HAL_Driver/Inc\stm32g4xx_ll_gpio.h ****   *         @arg @ref LL_GPIO_PIN_3
ARM GAS  F:\msys64\tmp\cc5aZRcQ.s 			page 22


 583:C:/Users/12522/STM32Cube/Repository/STM32Cube_FW_G4_V1.5.0/Drivers/STM32G4xx_HAL_Driver/Inc\stm32g4xx_ll_gpio.h ****   *         @arg @ref LL_GPIO_PIN_4
 584:C:/Users/12522/STM32Cube/Repository/STM32Cube_FW_G4_V1.5.0/Drivers/STM32G4xx_HAL_Driver/Inc\stm32g4xx_ll_gpio.h ****   *         @arg @ref LL_GPIO_PIN_5
 585:C:/Users/12522/STM32Cube/Repository/STM32Cube_FW_G4_V1.5.0/Drivers/STM32G4xx_HAL_Driver/Inc\stm32g4xx_ll_gpio.h ****   *         @arg @ref LL_GPIO_PIN_6
 586:C:/Users/12522/STM32Cube/Repository/STM32Cube_FW_G4_V1.5.0/Drivers/STM32G4xx_HAL_Driver/Inc\stm32g4xx_ll_gpio.h ****   *         @arg @ref LL_GPIO_PIN_7
 587:C:/Users/12522/STM32Cube/Repository/STM32Cube_FW_G4_V1.5.0/Drivers/STM32G4xx_HAL_Driver/Inc\stm32g4xx_ll_gpio.h ****   * @retval Returned value can be one of the following values:
 588:C:/Users/12522/STM32Cube/Repository/STM32Cube_FW_G4_V1.5.0/Drivers/STM32G4xx_HAL_Driver/Inc\stm32g4xx_ll_gpio.h ****   *         @arg @ref LL_GPIO_AF_0
 589:C:/Users/12522/STM32Cube/Repository/STM32Cube_FW_G4_V1.5.0/Drivers/STM32G4xx_HAL_Driver/Inc\stm32g4xx_ll_gpio.h ****   *         @arg @ref LL_GPIO_AF_1
 590:C:/Users/12522/STM32Cube/Repository/STM32Cube_FW_G4_V1.5.0/Drivers/STM32G4xx_HAL_Driver/Inc\stm32g4xx_ll_gpio.h ****   *         @arg @ref LL_GPIO_AF_2
 591:C:/Users/12522/STM32Cube/Repository/STM32Cube_FW_G4_V1.5.0/Drivers/STM32G4xx_HAL_Driver/Inc\stm32g4xx_ll_gpio.h ****   *         @arg @ref LL_GPIO_AF_3
 592:C:/Users/12522/STM32Cube/Repository/STM32Cube_FW_G4_V1.5.0/Drivers/STM32G4xx_HAL_Driver/Inc\stm32g4xx_ll_gpio.h ****   *         @arg @ref LL_GPIO_AF_4
 593:C:/Users/12522/STM32Cube/Repository/STM32Cube_FW_G4_V1.5.0/Drivers/STM32G4xx_HAL_Driver/Inc\stm32g4xx_ll_gpio.h ****   *         @arg @ref LL_GPIO_AF_5
 594:C:/Users/12522/STM32Cube/Repository/STM32Cube_FW_G4_V1.5.0/Drivers/STM32G4xx_HAL_Driver/Inc\stm32g4xx_ll_gpio.h ****   *         @arg @ref LL_GPIO_AF_6
 595:C:/Users/12522/STM32Cube/Repository/STM32Cube_FW_G4_V1.5.0/Drivers/STM32G4xx_HAL_Driver/Inc\stm32g4xx_ll_gpio.h ****   *         @arg @ref LL_GPIO_AF_7
 596:C:/Users/12522/STM32Cube/Repository/STM32Cube_FW_G4_V1.5.0/Drivers/STM32G4xx_HAL_Driver/Inc\stm32g4xx_ll_gpio.h ****   *         @arg @ref LL_GPIO_AF_8
 597:C:/Users/12522/STM32Cube/Repository/STM32Cube_FW_G4_V1.5.0/Drivers/STM32G4xx_HAL_Driver/Inc\stm32g4xx_ll_gpio.h ****   *         @arg @ref LL_GPIO_AF_9
 598:C:/Users/12522/STM32Cube/Repository/STM32Cube_FW_G4_V1.5.0/Drivers/STM32G4xx_HAL_Driver/Inc\stm32g4xx_ll_gpio.h ****   *         @arg @ref LL_GPIO_AF_10
 599:C:/Users/12522/STM32Cube/Repository/STM32Cube_FW_G4_V1.5.0/Drivers/STM32G4xx_HAL_Driver/Inc\stm32g4xx_ll_gpio.h ****   *         @arg @ref LL_GPIO_AF_11
 600:C:/Users/12522/STM32Cube/Repository/STM32Cube_FW_G4_V1.5.0/Drivers/STM32G4xx_HAL_Driver/Inc\stm32g4xx_ll_gpio.h ****   *         @arg @ref LL_GPIO_AF_12
 601:C:/Users/12522/STM32Cube/Repository/STM32Cube_FW_G4_V1.5.0/Drivers/STM32G4xx_HAL_Driver/Inc\stm32g4xx_ll_gpio.h ****   *         @arg @ref LL_GPIO_AF_13
 602:C:/Users/12522/STM32Cube/Repository/STM32Cube_FW_G4_V1.5.0/Drivers/STM32G4xx_HAL_Driver/Inc\stm32g4xx_ll_gpio.h ****   *         @arg @ref LL_GPIO_AF_14
 603:C:/Users/12522/STM32Cube/Repository/STM32Cube_FW_G4_V1.5.0/Drivers/STM32G4xx_HAL_Driver/Inc\stm32g4xx_ll_gpio.h ****   *         @arg @ref LL_GPIO_AF_15
 604:C:/Users/12522/STM32Cube/Repository/STM32Cube_FW_G4_V1.5.0/Drivers/STM32G4xx_HAL_Driver/Inc\stm32g4xx_ll_gpio.h ****   */
 605:C:/Users/12522/STM32Cube/Repository/STM32Cube_FW_G4_V1.5.0/Drivers/STM32G4xx_HAL_Driver/Inc\stm32g4xx_ll_gpio.h **** __STATIC_INLINE uint32_t LL_GPIO_GetAFPin_0_7(GPIO_TypeDef *GPIOx, uint32_t Pin)
 606:C:/Users/12522/STM32Cube/Repository/STM32Cube_FW_G4_V1.5.0/Drivers/STM32G4xx_HAL_Driver/Inc\stm32g4xx_ll_gpio.h **** {
 607:C:/Users/12522/STM32Cube/Repository/STM32Cube_FW_G4_V1.5.0/Drivers/STM32G4xx_HAL_Driver/Inc\stm32g4xx_ll_gpio.h ****   return (uint32_t)(READ_BIT(GPIOx->AFR[0],
 608:C:/Users/12522/STM32Cube/Repository/STM32Cube_FW_G4_V1.5.0/Drivers/STM32G4xx_HAL_Driver/Inc\stm32g4xx_ll_gpio.h ****                              (GPIO_AFRL_AFSEL0 << (POSITION_VAL(Pin) * 4U))) >> (POSITION_VAL(Pin) 
 609:C:/Users/12522/STM32Cube/Repository/STM32Cube_FW_G4_V1.5.0/Drivers/STM32G4xx_HAL_Driver/Inc\stm32g4xx_ll_gpio.h **** }
 610:C:/Users/12522/STM32Cube/Repository/STM32Cube_FW_G4_V1.5.0/Drivers/STM32G4xx_HAL_Driver/Inc\stm32g4xx_ll_gpio.h **** 
 611:C:/Users/12522/STM32Cube/Repository/STM32Cube_FW_G4_V1.5.0/Drivers/STM32G4xx_HAL_Driver/Inc\stm32g4xx_ll_gpio.h **** /**
 612:C:/Users/12522/STM32Cube/Repository/STM32Cube_FW_G4_V1.5.0/Drivers/STM32G4xx_HAL_Driver/Inc\stm32g4xx_ll_gpio.h ****   * @brief  Configure gpio alternate function of a dedicated pin from 8 to 15 for a dedicated port.
 613:C:/Users/12522/STM32Cube/Repository/STM32Cube_FW_G4_V1.5.0/Drivers/STM32G4xx_HAL_Driver/Inc\stm32g4xx_ll_gpio.h ****   * @note   Possible values are from AF0 to AF15 depending on target.
 614:C:/Users/12522/STM32Cube/Repository/STM32Cube_FW_G4_V1.5.0/Drivers/STM32G4xx_HAL_Driver/Inc\stm32g4xx_ll_gpio.h ****   * @note   Warning: only one pin can be passed as parameter.
 615:C:/Users/12522/STM32Cube/Repository/STM32Cube_FW_G4_V1.5.0/Drivers/STM32G4xx_HAL_Driver/Inc\stm32g4xx_ll_gpio.h ****   * @rmtoll AFRH         AFSELy        LL_GPIO_SetAFPin_8_15
 616:C:/Users/12522/STM32Cube/Repository/STM32Cube_FW_G4_V1.5.0/Drivers/STM32G4xx_HAL_Driver/Inc\stm32g4xx_ll_gpio.h ****   * @param  GPIOx GPIO Port
 617:C:/Users/12522/STM32Cube/Repository/STM32Cube_FW_G4_V1.5.0/Drivers/STM32G4xx_HAL_Driver/Inc\stm32g4xx_ll_gpio.h ****   * @param  Pin This parameter can be one of the following values:
 618:C:/Users/12522/STM32Cube/Repository/STM32Cube_FW_G4_V1.5.0/Drivers/STM32G4xx_HAL_Driver/Inc\stm32g4xx_ll_gpio.h ****   *         @arg @ref LL_GPIO_PIN_8
 619:C:/Users/12522/STM32Cube/Repository/STM32Cube_FW_G4_V1.5.0/Drivers/STM32G4xx_HAL_Driver/Inc\stm32g4xx_ll_gpio.h ****   *         @arg @ref LL_GPIO_PIN_9
 620:C:/Users/12522/STM32Cube/Repository/STM32Cube_FW_G4_V1.5.0/Drivers/STM32G4xx_HAL_Driver/Inc\stm32g4xx_ll_gpio.h ****   *         @arg @ref LL_GPIO_PIN_10
 621:C:/Users/12522/STM32Cube/Repository/STM32Cube_FW_G4_V1.5.0/Drivers/STM32G4xx_HAL_Driver/Inc\stm32g4xx_ll_gpio.h ****   *         @arg @ref LL_GPIO_PIN_11
 622:C:/Users/12522/STM32Cube/Repository/STM32Cube_FW_G4_V1.5.0/Drivers/STM32G4xx_HAL_Driver/Inc\stm32g4xx_ll_gpio.h ****   *         @arg @ref LL_GPIO_PIN_12
 623:C:/Users/12522/STM32Cube/Repository/STM32Cube_FW_G4_V1.5.0/Drivers/STM32G4xx_HAL_Driver/Inc\stm32g4xx_ll_gpio.h ****   *         @arg @ref LL_GPIO_PIN_13
 624:C:/Users/12522/STM32Cube/Repository/STM32Cube_FW_G4_V1.5.0/Drivers/STM32G4xx_HAL_Driver/Inc\stm32g4xx_ll_gpio.h ****   *         @arg @ref LL_GPIO_PIN_14
 625:C:/Users/12522/STM32Cube/Repository/STM32Cube_FW_G4_V1.5.0/Drivers/STM32G4xx_HAL_Driver/Inc\stm32g4xx_ll_gpio.h ****   *         @arg @ref LL_GPIO_PIN_15
 626:C:/Users/12522/STM32Cube/Repository/STM32Cube_FW_G4_V1.5.0/Drivers/STM32G4xx_HAL_Driver/Inc\stm32g4xx_ll_gpio.h ****   * @param  Alternate This parameter can be one of the following values:
 627:C:/Users/12522/STM32Cube/Repository/STM32Cube_FW_G4_V1.5.0/Drivers/STM32G4xx_HAL_Driver/Inc\stm32g4xx_ll_gpio.h ****   *         @arg @ref LL_GPIO_AF_0
 628:C:/Users/12522/STM32Cube/Repository/STM32Cube_FW_G4_V1.5.0/Drivers/STM32G4xx_HAL_Driver/Inc\stm32g4xx_ll_gpio.h ****   *         @arg @ref LL_GPIO_AF_1
 629:C:/Users/12522/STM32Cube/Repository/STM32Cube_FW_G4_V1.5.0/Drivers/STM32G4xx_HAL_Driver/Inc\stm32g4xx_ll_gpio.h ****   *         @arg @ref LL_GPIO_AF_2
 630:C:/Users/12522/STM32Cube/Repository/STM32Cube_FW_G4_V1.5.0/Drivers/STM32G4xx_HAL_Driver/Inc\stm32g4xx_ll_gpio.h ****   *         @arg @ref LL_GPIO_AF_3
 631:C:/Users/12522/STM32Cube/Repository/STM32Cube_FW_G4_V1.5.0/Drivers/STM32G4xx_HAL_Driver/Inc\stm32g4xx_ll_gpio.h ****   *         @arg @ref LL_GPIO_AF_4
 632:C:/Users/12522/STM32Cube/Repository/STM32Cube_FW_G4_V1.5.0/Drivers/STM32G4xx_HAL_Driver/Inc\stm32g4xx_ll_gpio.h ****   *         @arg @ref LL_GPIO_AF_5
 633:C:/Users/12522/STM32Cube/Repository/STM32Cube_FW_G4_V1.5.0/Drivers/STM32G4xx_HAL_Driver/Inc\stm32g4xx_ll_gpio.h ****   *         @arg @ref LL_GPIO_AF_6
 634:C:/Users/12522/STM32Cube/Repository/STM32Cube_FW_G4_V1.5.0/Drivers/STM32G4xx_HAL_Driver/Inc\stm32g4xx_ll_gpio.h ****   *         @arg @ref LL_GPIO_AF_7
 635:C:/Users/12522/STM32Cube/Repository/STM32Cube_FW_G4_V1.5.0/Drivers/STM32G4xx_HAL_Driver/Inc\stm32g4xx_ll_gpio.h ****   *         @arg @ref LL_GPIO_AF_8
 636:C:/Users/12522/STM32Cube/Repository/STM32Cube_FW_G4_V1.5.0/Drivers/STM32G4xx_HAL_Driver/Inc\stm32g4xx_ll_gpio.h ****   *         @arg @ref LL_GPIO_AF_9
 637:C:/Users/12522/STM32Cube/Repository/STM32Cube_FW_G4_V1.5.0/Drivers/STM32G4xx_HAL_Driver/Inc\stm32g4xx_ll_gpio.h ****   *         @arg @ref LL_GPIO_AF_10
 638:C:/Users/12522/STM32Cube/Repository/STM32Cube_FW_G4_V1.5.0/Drivers/STM32G4xx_HAL_Driver/Inc\stm32g4xx_ll_gpio.h ****   *         @arg @ref LL_GPIO_AF_11
 639:C:/Users/12522/STM32Cube/Repository/STM32Cube_FW_G4_V1.5.0/Drivers/STM32G4xx_HAL_Driver/Inc\stm32g4xx_ll_gpio.h ****   *         @arg @ref LL_GPIO_AF_12
ARM GAS  F:\msys64\tmp\cc5aZRcQ.s 			page 23


 640:C:/Users/12522/STM32Cube/Repository/STM32Cube_FW_G4_V1.5.0/Drivers/STM32G4xx_HAL_Driver/Inc\stm32g4xx_ll_gpio.h ****   *         @arg @ref LL_GPIO_AF_13
 641:C:/Users/12522/STM32Cube/Repository/STM32Cube_FW_G4_V1.5.0/Drivers/STM32G4xx_HAL_Driver/Inc\stm32g4xx_ll_gpio.h ****   *         @arg @ref LL_GPIO_AF_14
 642:C:/Users/12522/STM32Cube/Repository/STM32Cube_FW_G4_V1.5.0/Drivers/STM32G4xx_HAL_Driver/Inc\stm32g4xx_ll_gpio.h ****   *         @arg @ref LL_GPIO_AF_15
 643:C:/Users/12522/STM32Cube/Repository/STM32Cube_FW_G4_V1.5.0/Drivers/STM32G4xx_HAL_Driver/Inc\stm32g4xx_ll_gpio.h ****   * @retval None
 644:C:/Users/12522/STM32Cube/Repository/STM32Cube_FW_G4_V1.5.0/Drivers/STM32G4xx_HAL_Driver/Inc\stm32g4xx_ll_gpio.h ****   */
 645:C:/Users/12522/STM32Cube/Repository/STM32Cube_FW_G4_V1.5.0/Drivers/STM32G4xx_HAL_Driver/Inc\stm32g4xx_ll_gpio.h **** __STATIC_INLINE void LL_GPIO_SetAFPin_8_15(GPIO_TypeDef *GPIOx, uint32_t Pin, uint32_t Alternate)
 646:C:/Users/12522/STM32Cube/Repository/STM32Cube_FW_G4_V1.5.0/Drivers/STM32G4xx_HAL_Driver/Inc\stm32g4xx_ll_gpio.h **** {
 647:C:/Users/12522/STM32Cube/Repository/STM32Cube_FW_G4_V1.5.0/Drivers/STM32G4xx_HAL_Driver/Inc\stm32g4xx_ll_gpio.h ****   MODIFY_REG(GPIOx->AFR[1], (GPIO_AFRH_AFSEL8 << (POSITION_VAL(Pin >> 8U) * 4U)),
 648:C:/Users/12522/STM32Cube/Repository/STM32Cube_FW_G4_V1.5.0/Drivers/STM32G4xx_HAL_Driver/Inc\stm32g4xx_ll_gpio.h ****              (Alternate << (POSITION_VAL(Pin >> 8U) * 4U)));
 649:C:/Users/12522/STM32Cube/Repository/STM32Cube_FW_G4_V1.5.0/Drivers/STM32G4xx_HAL_Driver/Inc\stm32g4xx_ll_gpio.h **** }
 650:C:/Users/12522/STM32Cube/Repository/STM32Cube_FW_G4_V1.5.0/Drivers/STM32G4xx_HAL_Driver/Inc\stm32g4xx_ll_gpio.h **** 
 651:C:/Users/12522/STM32Cube/Repository/STM32Cube_FW_G4_V1.5.0/Drivers/STM32G4xx_HAL_Driver/Inc\stm32g4xx_ll_gpio.h **** /**
 652:C:/Users/12522/STM32Cube/Repository/STM32Cube_FW_G4_V1.5.0/Drivers/STM32G4xx_HAL_Driver/Inc\stm32g4xx_ll_gpio.h ****   * @brief  Return gpio alternate function of a dedicated pin from 8 to 15 for a dedicated port.
 653:C:/Users/12522/STM32Cube/Repository/STM32Cube_FW_G4_V1.5.0/Drivers/STM32G4xx_HAL_Driver/Inc\stm32g4xx_ll_gpio.h ****   * @note   Possible values are from AF0 to AF15 depending on target.
 654:C:/Users/12522/STM32Cube/Repository/STM32Cube_FW_G4_V1.5.0/Drivers/STM32G4xx_HAL_Driver/Inc\stm32g4xx_ll_gpio.h ****   * @rmtoll AFRH         AFSELy        LL_GPIO_GetAFPin_8_15
 655:C:/Users/12522/STM32Cube/Repository/STM32Cube_FW_G4_V1.5.0/Drivers/STM32G4xx_HAL_Driver/Inc\stm32g4xx_ll_gpio.h ****   * @param  GPIOx GPIO Port
 656:C:/Users/12522/STM32Cube/Repository/STM32Cube_FW_G4_V1.5.0/Drivers/STM32G4xx_HAL_Driver/Inc\stm32g4xx_ll_gpio.h ****   * @param  Pin This parameter can be one of the following values:
 657:C:/Users/12522/STM32Cube/Repository/STM32Cube_FW_G4_V1.5.0/Drivers/STM32G4xx_HAL_Driver/Inc\stm32g4xx_ll_gpio.h ****   *         @arg @ref LL_GPIO_PIN_8
 658:C:/Users/12522/STM32Cube/Repository/STM32Cube_FW_G4_V1.5.0/Drivers/STM32G4xx_HAL_Driver/Inc\stm32g4xx_ll_gpio.h ****   *         @arg @ref LL_GPIO_PIN_9
 659:C:/Users/12522/STM32Cube/Repository/STM32Cube_FW_G4_V1.5.0/Drivers/STM32G4xx_HAL_Driver/Inc\stm32g4xx_ll_gpio.h ****   *         @arg @ref LL_GPIO_PIN_10
 660:C:/Users/12522/STM32Cube/Repository/STM32Cube_FW_G4_V1.5.0/Drivers/STM32G4xx_HAL_Driver/Inc\stm32g4xx_ll_gpio.h ****   *         @arg @ref LL_GPIO_PIN_11
 661:C:/Users/12522/STM32Cube/Repository/STM32Cube_FW_G4_V1.5.0/Drivers/STM32G4xx_HAL_Driver/Inc\stm32g4xx_ll_gpio.h ****   *         @arg @ref LL_GPIO_PIN_12
 662:C:/Users/12522/STM32Cube/Repository/STM32Cube_FW_G4_V1.5.0/Drivers/STM32G4xx_HAL_Driver/Inc\stm32g4xx_ll_gpio.h ****   *         @arg @ref LL_GPIO_PIN_13
 663:C:/Users/12522/STM32Cube/Repository/STM32Cube_FW_G4_V1.5.0/Drivers/STM32G4xx_HAL_Driver/Inc\stm32g4xx_ll_gpio.h ****   *         @arg @ref LL_GPIO_PIN_14
 664:C:/Users/12522/STM32Cube/Repository/STM32Cube_FW_G4_V1.5.0/Drivers/STM32G4xx_HAL_Driver/Inc\stm32g4xx_ll_gpio.h ****   *         @arg @ref LL_GPIO_PIN_15
 665:C:/Users/12522/STM32Cube/Repository/STM32Cube_FW_G4_V1.5.0/Drivers/STM32G4xx_HAL_Driver/Inc\stm32g4xx_ll_gpio.h ****   * @retval Returned value can be one of the following values:
 666:C:/Users/12522/STM32Cube/Repository/STM32Cube_FW_G4_V1.5.0/Drivers/STM32G4xx_HAL_Driver/Inc\stm32g4xx_ll_gpio.h ****   *         @arg @ref LL_GPIO_AF_0
 667:C:/Users/12522/STM32Cube/Repository/STM32Cube_FW_G4_V1.5.0/Drivers/STM32G4xx_HAL_Driver/Inc\stm32g4xx_ll_gpio.h ****   *         @arg @ref LL_GPIO_AF_1
 668:C:/Users/12522/STM32Cube/Repository/STM32Cube_FW_G4_V1.5.0/Drivers/STM32G4xx_HAL_Driver/Inc\stm32g4xx_ll_gpio.h ****   *         @arg @ref LL_GPIO_AF_2
 669:C:/Users/12522/STM32Cube/Repository/STM32Cube_FW_G4_V1.5.0/Drivers/STM32G4xx_HAL_Driver/Inc\stm32g4xx_ll_gpio.h ****   *         @arg @ref LL_GPIO_AF_3
 670:C:/Users/12522/STM32Cube/Repository/STM32Cube_FW_G4_V1.5.0/Drivers/STM32G4xx_HAL_Driver/Inc\stm32g4xx_ll_gpio.h ****   *         @arg @ref LL_GPIO_AF_4
 671:C:/Users/12522/STM32Cube/Repository/STM32Cube_FW_G4_V1.5.0/Drivers/STM32G4xx_HAL_Driver/Inc\stm32g4xx_ll_gpio.h ****   *         @arg @ref LL_GPIO_AF_5
 672:C:/Users/12522/STM32Cube/Repository/STM32Cube_FW_G4_V1.5.0/Drivers/STM32G4xx_HAL_Driver/Inc\stm32g4xx_ll_gpio.h ****   *         @arg @ref LL_GPIO_AF_6
 673:C:/Users/12522/STM32Cube/Repository/STM32Cube_FW_G4_V1.5.0/Drivers/STM32G4xx_HAL_Driver/Inc\stm32g4xx_ll_gpio.h ****   *         @arg @ref LL_GPIO_AF_7
 674:C:/Users/12522/STM32Cube/Repository/STM32Cube_FW_G4_V1.5.0/Drivers/STM32G4xx_HAL_Driver/Inc\stm32g4xx_ll_gpio.h ****   *         @arg @ref LL_GPIO_AF_8
 675:C:/Users/12522/STM32Cube/Repository/STM32Cube_FW_G4_V1.5.0/Drivers/STM32G4xx_HAL_Driver/Inc\stm32g4xx_ll_gpio.h ****   *         @arg @ref LL_GPIO_AF_9
 676:C:/Users/12522/STM32Cube/Repository/STM32Cube_FW_G4_V1.5.0/Drivers/STM32G4xx_HAL_Driver/Inc\stm32g4xx_ll_gpio.h ****   *         @arg @ref LL_GPIO_AF_10
 677:C:/Users/12522/STM32Cube/Repository/STM32Cube_FW_G4_V1.5.0/Drivers/STM32G4xx_HAL_Driver/Inc\stm32g4xx_ll_gpio.h ****   *         @arg @ref LL_GPIO_AF_11
 678:C:/Users/12522/STM32Cube/Repository/STM32Cube_FW_G4_V1.5.0/Drivers/STM32G4xx_HAL_Driver/Inc\stm32g4xx_ll_gpio.h ****   *         @arg @ref LL_GPIO_AF_12
 679:C:/Users/12522/STM32Cube/Repository/STM32Cube_FW_G4_V1.5.0/Drivers/STM32G4xx_HAL_Driver/Inc\stm32g4xx_ll_gpio.h ****   *         @arg @ref LL_GPIO_AF_13
 680:C:/Users/12522/STM32Cube/Repository/STM32Cube_FW_G4_V1.5.0/Drivers/STM32G4xx_HAL_Driver/Inc\stm32g4xx_ll_gpio.h ****   *         @arg @ref LL_GPIO_AF_14
 681:C:/Users/12522/STM32Cube/Repository/STM32Cube_FW_G4_V1.5.0/Drivers/STM32G4xx_HAL_Driver/Inc\stm32g4xx_ll_gpio.h ****   *         @arg @ref LL_GPIO_AF_15
 682:C:/Users/12522/STM32Cube/Repository/STM32Cube_FW_G4_V1.5.0/Drivers/STM32G4xx_HAL_Driver/Inc\stm32g4xx_ll_gpio.h ****   */
 683:C:/Users/12522/STM32Cube/Repository/STM32Cube_FW_G4_V1.5.0/Drivers/STM32G4xx_HAL_Driver/Inc\stm32g4xx_ll_gpio.h **** __STATIC_INLINE uint32_t LL_GPIO_GetAFPin_8_15(GPIO_TypeDef *GPIOx, uint32_t Pin)
 684:C:/Users/12522/STM32Cube/Repository/STM32Cube_FW_G4_V1.5.0/Drivers/STM32G4xx_HAL_Driver/Inc\stm32g4xx_ll_gpio.h **** {
 685:C:/Users/12522/STM32Cube/Repository/STM32Cube_FW_G4_V1.5.0/Drivers/STM32G4xx_HAL_Driver/Inc\stm32g4xx_ll_gpio.h ****   return (uint32_t)(READ_BIT(GPIOx->AFR[1],
 686:C:/Users/12522/STM32Cube/Repository/STM32Cube_FW_G4_V1.5.0/Drivers/STM32G4xx_HAL_Driver/Inc\stm32g4xx_ll_gpio.h ****                              (GPIO_AFRH_AFSEL8 << (POSITION_VAL(Pin >> 8U) * 4U))) >> (POSITION_VAL
 687:C:/Users/12522/STM32Cube/Repository/STM32Cube_FW_G4_V1.5.0/Drivers/STM32G4xx_HAL_Driver/Inc\stm32g4xx_ll_gpio.h **** }
 688:C:/Users/12522/STM32Cube/Repository/STM32Cube_FW_G4_V1.5.0/Drivers/STM32G4xx_HAL_Driver/Inc\stm32g4xx_ll_gpio.h **** 
 689:C:/Users/12522/STM32Cube/Repository/STM32Cube_FW_G4_V1.5.0/Drivers/STM32G4xx_HAL_Driver/Inc\stm32g4xx_ll_gpio.h **** 
 690:C:/Users/12522/STM32Cube/Repository/STM32Cube_FW_G4_V1.5.0/Drivers/STM32G4xx_HAL_Driver/Inc\stm32g4xx_ll_gpio.h **** /**
 691:C:/Users/12522/STM32Cube/Repository/STM32Cube_FW_G4_V1.5.0/Drivers/STM32G4xx_HAL_Driver/Inc\stm32g4xx_ll_gpio.h ****   * @brief  Lock configuration of several pins for a dedicated port.
 692:C:/Users/12522/STM32Cube/Repository/STM32Cube_FW_G4_V1.5.0/Drivers/STM32G4xx_HAL_Driver/Inc\stm32g4xx_ll_gpio.h ****   * @note   When the lock sequence has been applied on a port bit, the
 693:C:/Users/12522/STM32Cube/Repository/STM32Cube_FW_G4_V1.5.0/Drivers/STM32G4xx_HAL_Driver/Inc\stm32g4xx_ll_gpio.h ****   *         value of this port bit can no longer be modified until the
 694:C:/Users/12522/STM32Cube/Repository/STM32Cube_FW_G4_V1.5.0/Drivers/STM32G4xx_HAL_Driver/Inc\stm32g4xx_ll_gpio.h ****   *         next reset.
 695:C:/Users/12522/STM32Cube/Repository/STM32Cube_FW_G4_V1.5.0/Drivers/STM32G4xx_HAL_Driver/Inc\stm32g4xx_ll_gpio.h ****   * @note   Each lock bit freezes a specific configuration register
 696:C:/Users/12522/STM32Cube/Repository/STM32Cube_FW_G4_V1.5.0/Drivers/STM32G4xx_HAL_Driver/Inc\stm32g4xx_ll_gpio.h ****   *         (control and alternate function registers).
ARM GAS  F:\msys64\tmp\cc5aZRcQ.s 			page 24


 697:C:/Users/12522/STM32Cube/Repository/STM32Cube_FW_G4_V1.5.0/Drivers/STM32G4xx_HAL_Driver/Inc\stm32g4xx_ll_gpio.h ****   * @rmtoll LCKR         LCKK          LL_GPIO_LockPin
 698:C:/Users/12522/STM32Cube/Repository/STM32Cube_FW_G4_V1.5.0/Drivers/STM32G4xx_HAL_Driver/Inc\stm32g4xx_ll_gpio.h ****   * @param  GPIOx GPIO Port
 699:C:/Users/12522/STM32Cube/Repository/STM32Cube_FW_G4_V1.5.0/Drivers/STM32G4xx_HAL_Driver/Inc\stm32g4xx_ll_gpio.h ****   * @param  PinMask This parameter can be a combination of the following values:
 700:C:/Users/12522/STM32Cube/Repository/STM32Cube_FW_G4_V1.5.0/Drivers/STM32G4xx_HAL_Driver/Inc\stm32g4xx_ll_gpio.h ****   *         @arg @ref LL_GPIO_PIN_0
 701:C:/Users/12522/STM32Cube/Repository/STM32Cube_FW_G4_V1.5.0/Drivers/STM32G4xx_HAL_Driver/Inc\stm32g4xx_ll_gpio.h ****   *         @arg @ref LL_GPIO_PIN_1
 702:C:/Users/12522/STM32Cube/Repository/STM32Cube_FW_G4_V1.5.0/Drivers/STM32G4xx_HAL_Driver/Inc\stm32g4xx_ll_gpio.h ****   *         @arg @ref LL_GPIO_PIN_2
 703:C:/Users/12522/STM32Cube/Repository/STM32Cube_FW_G4_V1.5.0/Drivers/STM32G4xx_HAL_Driver/Inc\stm32g4xx_ll_gpio.h ****   *         @arg @ref LL_GPIO_PIN_3
 704:C:/Users/12522/STM32Cube/Repository/STM32Cube_FW_G4_V1.5.0/Drivers/STM32G4xx_HAL_Driver/Inc\stm32g4xx_ll_gpio.h ****   *         @arg @ref LL_GPIO_PIN_4
 705:C:/Users/12522/STM32Cube/Repository/STM32Cube_FW_G4_V1.5.0/Drivers/STM32G4xx_HAL_Driver/Inc\stm32g4xx_ll_gpio.h ****   *         @arg @ref LL_GPIO_PIN_5
 706:C:/Users/12522/STM32Cube/Repository/STM32Cube_FW_G4_V1.5.0/Drivers/STM32G4xx_HAL_Driver/Inc\stm32g4xx_ll_gpio.h ****   *         @arg @ref LL_GPIO_PIN_6
 707:C:/Users/12522/STM32Cube/Repository/STM32Cube_FW_G4_V1.5.0/Drivers/STM32G4xx_HAL_Driver/Inc\stm32g4xx_ll_gpio.h ****   *         @arg @ref LL_GPIO_PIN_7
 708:C:/Users/12522/STM32Cube/Repository/STM32Cube_FW_G4_V1.5.0/Drivers/STM32G4xx_HAL_Driver/Inc\stm32g4xx_ll_gpio.h ****   *         @arg @ref LL_GPIO_PIN_8
 709:C:/Users/12522/STM32Cube/Repository/STM32Cube_FW_G4_V1.5.0/Drivers/STM32G4xx_HAL_Driver/Inc\stm32g4xx_ll_gpio.h ****   *         @arg @ref LL_GPIO_PIN_9
 710:C:/Users/12522/STM32Cube/Repository/STM32Cube_FW_G4_V1.5.0/Drivers/STM32G4xx_HAL_Driver/Inc\stm32g4xx_ll_gpio.h ****   *         @arg @ref LL_GPIO_PIN_10
 711:C:/Users/12522/STM32Cube/Repository/STM32Cube_FW_G4_V1.5.0/Drivers/STM32G4xx_HAL_Driver/Inc\stm32g4xx_ll_gpio.h ****   *         @arg @ref LL_GPIO_PIN_11
 712:C:/Users/12522/STM32Cube/Repository/STM32Cube_FW_G4_V1.5.0/Drivers/STM32G4xx_HAL_Driver/Inc\stm32g4xx_ll_gpio.h ****   *         @arg @ref LL_GPIO_PIN_12
 713:C:/Users/12522/STM32Cube/Repository/STM32Cube_FW_G4_V1.5.0/Drivers/STM32G4xx_HAL_Driver/Inc\stm32g4xx_ll_gpio.h ****   *         @arg @ref LL_GPIO_PIN_13
 714:C:/Users/12522/STM32Cube/Repository/STM32Cube_FW_G4_V1.5.0/Drivers/STM32G4xx_HAL_Driver/Inc\stm32g4xx_ll_gpio.h ****   *         @arg @ref LL_GPIO_PIN_14
 715:C:/Users/12522/STM32Cube/Repository/STM32Cube_FW_G4_V1.5.0/Drivers/STM32G4xx_HAL_Driver/Inc\stm32g4xx_ll_gpio.h ****   *         @arg @ref LL_GPIO_PIN_15
 716:C:/Users/12522/STM32Cube/Repository/STM32Cube_FW_G4_V1.5.0/Drivers/STM32G4xx_HAL_Driver/Inc\stm32g4xx_ll_gpio.h ****   *         @arg @ref LL_GPIO_PIN_ALL
 717:C:/Users/12522/STM32Cube/Repository/STM32Cube_FW_G4_V1.5.0/Drivers/STM32G4xx_HAL_Driver/Inc\stm32g4xx_ll_gpio.h ****   * @retval None
 718:C:/Users/12522/STM32Cube/Repository/STM32Cube_FW_G4_V1.5.0/Drivers/STM32G4xx_HAL_Driver/Inc\stm32g4xx_ll_gpio.h ****   */
 719:C:/Users/12522/STM32Cube/Repository/STM32Cube_FW_G4_V1.5.0/Drivers/STM32G4xx_HAL_Driver/Inc\stm32g4xx_ll_gpio.h **** __STATIC_INLINE void LL_GPIO_LockPin(GPIO_TypeDef *GPIOx, uint32_t PinMask)
 720:C:/Users/12522/STM32Cube/Repository/STM32Cube_FW_G4_V1.5.0/Drivers/STM32G4xx_HAL_Driver/Inc\stm32g4xx_ll_gpio.h **** {
 721:C:/Users/12522/STM32Cube/Repository/STM32Cube_FW_G4_V1.5.0/Drivers/STM32G4xx_HAL_Driver/Inc\stm32g4xx_ll_gpio.h ****   __IO uint32_t temp;
 722:C:/Users/12522/STM32Cube/Repository/STM32Cube_FW_G4_V1.5.0/Drivers/STM32G4xx_HAL_Driver/Inc\stm32g4xx_ll_gpio.h ****   WRITE_REG(GPIOx->LCKR, GPIO_LCKR_LCKK | PinMask);
 723:C:/Users/12522/STM32Cube/Repository/STM32Cube_FW_G4_V1.5.0/Drivers/STM32G4xx_HAL_Driver/Inc\stm32g4xx_ll_gpio.h ****   WRITE_REG(GPIOx->LCKR, PinMask);
 724:C:/Users/12522/STM32Cube/Repository/STM32Cube_FW_G4_V1.5.0/Drivers/STM32G4xx_HAL_Driver/Inc\stm32g4xx_ll_gpio.h ****   WRITE_REG(GPIOx->LCKR, GPIO_LCKR_LCKK | PinMask);
 725:C:/Users/12522/STM32Cube/Repository/STM32Cube_FW_G4_V1.5.0/Drivers/STM32G4xx_HAL_Driver/Inc\stm32g4xx_ll_gpio.h ****   /* Read LCKR register. This read is mandatory to complete key lock sequence */
 726:C:/Users/12522/STM32Cube/Repository/STM32Cube_FW_G4_V1.5.0/Drivers/STM32G4xx_HAL_Driver/Inc\stm32g4xx_ll_gpio.h ****   temp = READ_REG(GPIOx->LCKR);
 727:C:/Users/12522/STM32Cube/Repository/STM32Cube_FW_G4_V1.5.0/Drivers/STM32G4xx_HAL_Driver/Inc\stm32g4xx_ll_gpio.h ****   (void) temp;
 728:C:/Users/12522/STM32Cube/Repository/STM32Cube_FW_G4_V1.5.0/Drivers/STM32G4xx_HAL_Driver/Inc\stm32g4xx_ll_gpio.h **** }
 729:C:/Users/12522/STM32Cube/Repository/STM32Cube_FW_G4_V1.5.0/Drivers/STM32G4xx_HAL_Driver/Inc\stm32g4xx_ll_gpio.h **** 
 730:C:/Users/12522/STM32Cube/Repository/STM32Cube_FW_G4_V1.5.0/Drivers/STM32G4xx_HAL_Driver/Inc\stm32g4xx_ll_gpio.h **** /**
 731:C:/Users/12522/STM32Cube/Repository/STM32Cube_FW_G4_V1.5.0/Drivers/STM32G4xx_HAL_Driver/Inc\stm32g4xx_ll_gpio.h ****   * @brief  Return 1 if all pins passed as parameter, of a dedicated port, are locked. else Return 
 732:C:/Users/12522/STM32Cube/Repository/STM32Cube_FW_G4_V1.5.0/Drivers/STM32G4xx_HAL_Driver/Inc\stm32g4xx_ll_gpio.h ****   * @rmtoll LCKR         LCKy          LL_GPIO_IsPinLocked
 733:C:/Users/12522/STM32Cube/Repository/STM32Cube_FW_G4_V1.5.0/Drivers/STM32G4xx_HAL_Driver/Inc\stm32g4xx_ll_gpio.h ****   * @param  GPIOx GPIO Port
 734:C:/Users/12522/STM32Cube/Repository/STM32Cube_FW_G4_V1.5.0/Drivers/STM32G4xx_HAL_Driver/Inc\stm32g4xx_ll_gpio.h ****   * @param  PinMask This parameter can be a combination of the following values:
 735:C:/Users/12522/STM32Cube/Repository/STM32Cube_FW_G4_V1.5.0/Drivers/STM32G4xx_HAL_Driver/Inc\stm32g4xx_ll_gpio.h ****   *         @arg @ref LL_GPIO_PIN_0
 736:C:/Users/12522/STM32Cube/Repository/STM32Cube_FW_G4_V1.5.0/Drivers/STM32G4xx_HAL_Driver/Inc\stm32g4xx_ll_gpio.h ****   *         @arg @ref LL_GPIO_PIN_1
 737:C:/Users/12522/STM32Cube/Repository/STM32Cube_FW_G4_V1.5.0/Drivers/STM32G4xx_HAL_Driver/Inc\stm32g4xx_ll_gpio.h ****   *         @arg @ref LL_GPIO_PIN_2
 738:C:/Users/12522/STM32Cube/Repository/STM32Cube_FW_G4_V1.5.0/Drivers/STM32G4xx_HAL_Driver/Inc\stm32g4xx_ll_gpio.h ****   *         @arg @ref LL_GPIO_PIN_3
 739:C:/Users/12522/STM32Cube/Repository/STM32Cube_FW_G4_V1.5.0/Drivers/STM32G4xx_HAL_Driver/Inc\stm32g4xx_ll_gpio.h ****   *         @arg @ref LL_GPIO_PIN_4
 740:C:/Users/12522/STM32Cube/Repository/STM32Cube_FW_G4_V1.5.0/Drivers/STM32G4xx_HAL_Driver/Inc\stm32g4xx_ll_gpio.h ****   *         @arg @ref LL_GPIO_PIN_5
 741:C:/Users/12522/STM32Cube/Repository/STM32Cube_FW_G4_V1.5.0/Drivers/STM32G4xx_HAL_Driver/Inc\stm32g4xx_ll_gpio.h ****   *         @arg @ref LL_GPIO_PIN_6
 742:C:/Users/12522/STM32Cube/Repository/STM32Cube_FW_G4_V1.5.0/Drivers/STM32G4xx_HAL_Driver/Inc\stm32g4xx_ll_gpio.h ****   *         @arg @ref LL_GPIO_PIN_7
 743:C:/Users/12522/STM32Cube/Repository/STM32Cube_FW_G4_V1.5.0/Drivers/STM32G4xx_HAL_Driver/Inc\stm32g4xx_ll_gpio.h ****   *         @arg @ref LL_GPIO_PIN_8
 744:C:/Users/12522/STM32Cube/Repository/STM32Cube_FW_G4_V1.5.0/Drivers/STM32G4xx_HAL_Driver/Inc\stm32g4xx_ll_gpio.h ****   *         @arg @ref LL_GPIO_PIN_9
 745:C:/Users/12522/STM32Cube/Repository/STM32Cube_FW_G4_V1.5.0/Drivers/STM32G4xx_HAL_Driver/Inc\stm32g4xx_ll_gpio.h ****   *         @arg @ref LL_GPIO_PIN_10
 746:C:/Users/12522/STM32Cube/Repository/STM32Cube_FW_G4_V1.5.0/Drivers/STM32G4xx_HAL_Driver/Inc\stm32g4xx_ll_gpio.h ****   *         @arg @ref LL_GPIO_PIN_11
 747:C:/Users/12522/STM32Cube/Repository/STM32Cube_FW_G4_V1.5.0/Drivers/STM32G4xx_HAL_Driver/Inc\stm32g4xx_ll_gpio.h ****   *         @arg @ref LL_GPIO_PIN_12
 748:C:/Users/12522/STM32Cube/Repository/STM32Cube_FW_G4_V1.5.0/Drivers/STM32G4xx_HAL_Driver/Inc\stm32g4xx_ll_gpio.h ****   *         @arg @ref LL_GPIO_PIN_13
 749:C:/Users/12522/STM32Cube/Repository/STM32Cube_FW_G4_V1.5.0/Drivers/STM32G4xx_HAL_Driver/Inc\stm32g4xx_ll_gpio.h ****   *         @arg @ref LL_GPIO_PIN_14
 750:C:/Users/12522/STM32Cube/Repository/STM32Cube_FW_G4_V1.5.0/Drivers/STM32G4xx_HAL_Driver/Inc\stm32g4xx_ll_gpio.h ****   *         @arg @ref LL_GPIO_PIN_15
 751:C:/Users/12522/STM32Cube/Repository/STM32Cube_FW_G4_V1.5.0/Drivers/STM32G4xx_HAL_Driver/Inc\stm32g4xx_ll_gpio.h ****   *         @arg @ref LL_GPIO_PIN_ALL
 752:C:/Users/12522/STM32Cube/Repository/STM32Cube_FW_G4_V1.5.0/Drivers/STM32G4xx_HAL_Driver/Inc\stm32g4xx_ll_gpio.h ****   * @retval State of bit (1 or 0).
 753:C:/Users/12522/STM32Cube/Repository/STM32Cube_FW_G4_V1.5.0/Drivers/STM32G4xx_HAL_Driver/Inc\stm32g4xx_ll_gpio.h ****   */
ARM GAS  F:\msys64\tmp\cc5aZRcQ.s 			page 25


 754:C:/Users/12522/STM32Cube/Repository/STM32Cube_FW_G4_V1.5.0/Drivers/STM32G4xx_HAL_Driver/Inc\stm32g4xx_ll_gpio.h **** __STATIC_INLINE uint32_t LL_GPIO_IsPinLocked(GPIO_TypeDef *GPIOx, uint32_t PinMask)
 755:C:/Users/12522/STM32Cube/Repository/STM32Cube_FW_G4_V1.5.0/Drivers/STM32G4xx_HAL_Driver/Inc\stm32g4xx_ll_gpio.h **** {
 756:C:/Users/12522/STM32Cube/Repository/STM32Cube_FW_G4_V1.5.0/Drivers/STM32G4xx_HAL_Driver/Inc\stm32g4xx_ll_gpio.h ****   return ((READ_BIT(GPIOx->LCKR, PinMask) == (PinMask)) ? 1UL : 0UL);
 757:C:/Users/12522/STM32Cube/Repository/STM32Cube_FW_G4_V1.5.0/Drivers/STM32G4xx_HAL_Driver/Inc\stm32g4xx_ll_gpio.h **** }
 758:C:/Users/12522/STM32Cube/Repository/STM32Cube_FW_G4_V1.5.0/Drivers/STM32G4xx_HAL_Driver/Inc\stm32g4xx_ll_gpio.h **** 
 759:C:/Users/12522/STM32Cube/Repository/STM32Cube_FW_G4_V1.5.0/Drivers/STM32G4xx_HAL_Driver/Inc\stm32g4xx_ll_gpio.h **** /**
 760:C:/Users/12522/STM32Cube/Repository/STM32Cube_FW_G4_V1.5.0/Drivers/STM32G4xx_HAL_Driver/Inc\stm32g4xx_ll_gpio.h ****   * @brief  Return 1 if one of the pin of a dedicated port is locked. else return 0.
 761:C:/Users/12522/STM32Cube/Repository/STM32Cube_FW_G4_V1.5.0/Drivers/STM32G4xx_HAL_Driver/Inc\stm32g4xx_ll_gpio.h ****   * @rmtoll LCKR         LCKK          LL_GPIO_IsAnyPinLocked
 762:C:/Users/12522/STM32Cube/Repository/STM32Cube_FW_G4_V1.5.0/Drivers/STM32G4xx_HAL_Driver/Inc\stm32g4xx_ll_gpio.h ****   * @param  GPIOx GPIO Port
 763:C:/Users/12522/STM32Cube/Repository/STM32Cube_FW_G4_V1.5.0/Drivers/STM32G4xx_HAL_Driver/Inc\stm32g4xx_ll_gpio.h ****   * @retval State of bit (1 or 0).
 764:C:/Users/12522/STM32Cube/Repository/STM32Cube_FW_G4_V1.5.0/Drivers/STM32G4xx_HAL_Driver/Inc\stm32g4xx_ll_gpio.h ****   */
 765:C:/Users/12522/STM32Cube/Repository/STM32Cube_FW_G4_V1.5.0/Drivers/STM32G4xx_HAL_Driver/Inc\stm32g4xx_ll_gpio.h **** __STATIC_INLINE uint32_t LL_GPIO_IsAnyPinLocked(GPIO_TypeDef *GPIOx)
 766:C:/Users/12522/STM32Cube/Repository/STM32Cube_FW_G4_V1.5.0/Drivers/STM32G4xx_HAL_Driver/Inc\stm32g4xx_ll_gpio.h **** {
 767:C:/Users/12522/STM32Cube/Repository/STM32Cube_FW_G4_V1.5.0/Drivers/STM32G4xx_HAL_Driver/Inc\stm32g4xx_ll_gpio.h ****   return ((READ_BIT(GPIOx->LCKR, GPIO_LCKR_LCKK) == (GPIO_LCKR_LCKK)) ? 1UL : 0UL);
 768:C:/Users/12522/STM32Cube/Repository/STM32Cube_FW_G4_V1.5.0/Drivers/STM32G4xx_HAL_Driver/Inc\stm32g4xx_ll_gpio.h **** }
 769:C:/Users/12522/STM32Cube/Repository/STM32Cube_FW_G4_V1.5.0/Drivers/STM32G4xx_HAL_Driver/Inc\stm32g4xx_ll_gpio.h **** 
 770:C:/Users/12522/STM32Cube/Repository/STM32Cube_FW_G4_V1.5.0/Drivers/STM32G4xx_HAL_Driver/Inc\stm32g4xx_ll_gpio.h **** /**
 771:C:/Users/12522/STM32Cube/Repository/STM32Cube_FW_G4_V1.5.0/Drivers/STM32G4xx_HAL_Driver/Inc\stm32g4xx_ll_gpio.h ****   * @}
 772:C:/Users/12522/STM32Cube/Repository/STM32Cube_FW_G4_V1.5.0/Drivers/STM32G4xx_HAL_Driver/Inc\stm32g4xx_ll_gpio.h ****   */
 773:C:/Users/12522/STM32Cube/Repository/STM32Cube_FW_G4_V1.5.0/Drivers/STM32G4xx_HAL_Driver/Inc\stm32g4xx_ll_gpio.h **** 
 774:C:/Users/12522/STM32Cube/Repository/STM32Cube_FW_G4_V1.5.0/Drivers/STM32G4xx_HAL_Driver/Inc\stm32g4xx_ll_gpio.h **** /** @defgroup GPIO_LL_EF_Data_Access Data Access
 775:C:/Users/12522/STM32Cube/Repository/STM32Cube_FW_G4_V1.5.0/Drivers/STM32G4xx_HAL_Driver/Inc\stm32g4xx_ll_gpio.h ****   * @{
 776:C:/Users/12522/STM32Cube/Repository/STM32Cube_FW_G4_V1.5.0/Drivers/STM32G4xx_HAL_Driver/Inc\stm32g4xx_ll_gpio.h ****   */
 777:C:/Users/12522/STM32Cube/Repository/STM32Cube_FW_G4_V1.5.0/Drivers/STM32G4xx_HAL_Driver/Inc\stm32g4xx_ll_gpio.h **** 
 778:C:/Users/12522/STM32Cube/Repository/STM32Cube_FW_G4_V1.5.0/Drivers/STM32G4xx_HAL_Driver/Inc\stm32g4xx_ll_gpio.h **** /**
 779:C:/Users/12522/STM32Cube/Repository/STM32Cube_FW_G4_V1.5.0/Drivers/STM32G4xx_HAL_Driver/Inc\stm32g4xx_ll_gpio.h ****   * @brief  Return full input data register value for a dedicated port.
 780:C:/Users/12522/STM32Cube/Repository/STM32Cube_FW_G4_V1.5.0/Drivers/STM32G4xx_HAL_Driver/Inc\stm32g4xx_ll_gpio.h ****   * @rmtoll IDR          IDy           LL_GPIO_ReadInputPort
 781:C:/Users/12522/STM32Cube/Repository/STM32Cube_FW_G4_V1.5.0/Drivers/STM32G4xx_HAL_Driver/Inc\stm32g4xx_ll_gpio.h ****   * @param  GPIOx GPIO Port
 782:C:/Users/12522/STM32Cube/Repository/STM32Cube_FW_G4_V1.5.0/Drivers/STM32G4xx_HAL_Driver/Inc\stm32g4xx_ll_gpio.h ****   * @retval Input data register value of port
 783:C:/Users/12522/STM32Cube/Repository/STM32Cube_FW_G4_V1.5.0/Drivers/STM32G4xx_HAL_Driver/Inc\stm32g4xx_ll_gpio.h ****   */
 784:C:/Users/12522/STM32Cube/Repository/STM32Cube_FW_G4_V1.5.0/Drivers/STM32G4xx_HAL_Driver/Inc\stm32g4xx_ll_gpio.h **** __STATIC_INLINE uint32_t LL_GPIO_ReadInputPort(GPIO_TypeDef *GPIOx)
 785:C:/Users/12522/STM32Cube/Repository/STM32Cube_FW_G4_V1.5.0/Drivers/STM32G4xx_HAL_Driver/Inc\stm32g4xx_ll_gpio.h **** {
 786:C:/Users/12522/STM32Cube/Repository/STM32Cube_FW_G4_V1.5.0/Drivers/STM32G4xx_HAL_Driver/Inc\stm32g4xx_ll_gpio.h ****   return (uint32_t)(READ_REG(GPIOx->IDR));
 787:C:/Users/12522/STM32Cube/Repository/STM32Cube_FW_G4_V1.5.0/Drivers/STM32G4xx_HAL_Driver/Inc\stm32g4xx_ll_gpio.h **** }
 788:C:/Users/12522/STM32Cube/Repository/STM32Cube_FW_G4_V1.5.0/Drivers/STM32G4xx_HAL_Driver/Inc\stm32g4xx_ll_gpio.h **** 
 789:C:/Users/12522/STM32Cube/Repository/STM32Cube_FW_G4_V1.5.0/Drivers/STM32G4xx_HAL_Driver/Inc\stm32g4xx_ll_gpio.h **** /**
 790:C:/Users/12522/STM32Cube/Repository/STM32Cube_FW_G4_V1.5.0/Drivers/STM32G4xx_HAL_Driver/Inc\stm32g4xx_ll_gpio.h ****   * @brief  Return if input data level for several pins of dedicated port is high or low.
 791:C:/Users/12522/STM32Cube/Repository/STM32Cube_FW_G4_V1.5.0/Drivers/STM32G4xx_HAL_Driver/Inc\stm32g4xx_ll_gpio.h ****   * @rmtoll IDR          IDy           LL_GPIO_IsInputPinSet
 792:C:/Users/12522/STM32Cube/Repository/STM32Cube_FW_G4_V1.5.0/Drivers/STM32G4xx_HAL_Driver/Inc\stm32g4xx_ll_gpio.h ****   * @param  GPIOx GPIO Port
 793:C:/Users/12522/STM32Cube/Repository/STM32Cube_FW_G4_V1.5.0/Drivers/STM32G4xx_HAL_Driver/Inc\stm32g4xx_ll_gpio.h ****   * @param  PinMask This parameter can be a combination of the following values:
 794:C:/Users/12522/STM32Cube/Repository/STM32Cube_FW_G4_V1.5.0/Drivers/STM32G4xx_HAL_Driver/Inc\stm32g4xx_ll_gpio.h ****   *         @arg @ref LL_GPIO_PIN_0
 795:C:/Users/12522/STM32Cube/Repository/STM32Cube_FW_G4_V1.5.0/Drivers/STM32G4xx_HAL_Driver/Inc\stm32g4xx_ll_gpio.h ****   *         @arg @ref LL_GPIO_PIN_1
 796:C:/Users/12522/STM32Cube/Repository/STM32Cube_FW_G4_V1.5.0/Drivers/STM32G4xx_HAL_Driver/Inc\stm32g4xx_ll_gpio.h ****   *         @arg @ref LL_GPIO_PIN_2
 797:C:/Users/12522/STM32Cube/Repository/STM32Cube_FW_G4_V1.5.0/Drivers/STM32G4xx_HAL_Driver/Inc\stm32g4xx_ll_gpio.h ****   *         @arg @ref LL_GPIO_PIN_3
 798:C:/Users/12522/STM32Cube/Repository/STM32Cube_FW_G4_V1.5.0/Drivers/STM32G4xx_HAL_Driver/Inc\stm32g4xx_ll_gpio.h ****   *         @arg @ref LL_GPIO_PIN_4
 799:C:/Users/12522/STM32Cube/Repository/STM32Cube_FW_G4_V1.5.0/Drivers/STM32G4xx_HAL_Driver/Inc\stm32g4xx_ll_gpio.h ****   *         @arg @ref LL_GPIO_PIN_5
 800:C:/Users/12522/STM32Cube/Repository/STM32Cube_FW_G4_V1.5.0/Drivers/STM32G4xx_HAL_Driver/Inc\stm32g4xx_ll_gpio.h ****   *         @arg @ref LL_GPIO_PIN_6
 801:C:/Users/12522/STM32Cube/Repository/STM32Cube_FW_G4_V1.5.0/Drivers/STM32G4xx_HAL_Driver/Inc\stm32g4xx_ll_gpio.h ****   *         @arg @ref LL_GPIO_PIN_7
 802:C:/Users/12522/STM32Cube/Repository/STM32Cube_FW_G4_V1.5.0/Drivers/STM32G4xx_HAL_Driver/Inc\stm32g4xx_ll_gpio.h ****   *         @arg @ref LL_GPIO_PIN_8
 803:C:/Users/12522/STM32Cube/Repository/STM32Cube_FW_G4_V1.5.0/Drivers/STM32G4xx_HAL_Driver/Inc\stm32g4xx_ll_gpio.h ****   *         @arg @ref LL_GPIO_PIN_9
 804:C:/Users/12522/STM32Cube/Repository/STM32Cube_FW_G4_V1.5.0/Drivers/STM32G4xx_HAL_Driver/Inc\stm32g4xx_ll_gpio.h ****   *         @arg @ref LL_GPIO_PIN_10
 805:C:/Users/12522/STM32Cube/Repository/STM32Cube_FW_G4_V1.5.0/Drivers/STM32G4xx_HAL_Driver/Inc\stm32g4xx_ll_gpio.h ****   *         @arg @ref LL_GPIO_PIN_11
 806:C:/Users/12522/STM32Cube/Repository/STM32Cube_FW_G4_V1.5.0/Drivers/STM32G4xx_HAL_Driver/Inc\stm32g4xx_ll_gpio.h ****   *         @arg @ref LL_GPIO_PIN_12
 807:C:/Users/12522/STM32Cube/Repository/STM32Cube_FW_G4_V1.5.0/Drivers/STM32G4xx_HAL_Driver/Inc\stm32g4xx_ll_gpio.h ****   *         @arg @ref LL_GPIO_PIN_13
 808:C:/Users/12522/STM32Cube/Repository/STM32Cube_FW_G4_V1.5.0/Drivers/STM32G4xx_HAL_Driver/Inc\stm32g4xx_ll_gpio.h ****   *         @arg @ref LL_GPIO_PIN_14
 809:C:/Users/12522/STM32Cube/Repository/STM32Cube_FW_G4_V1.5.0/Drivers/STM32G4xx_HAL_Driver/Inc\stm32g4xx_ll_gpio.h ****   *         @arg @ref LL_GPIO_PIN_15
 810:C:/Users/12522/STM32Cube/Repository/STM32Cube_FW_G4_V1.5.0/Drivers/STM32G4xx_HAL_Driver/Inc\stm32g4xx_ll_gpio.h ****   *         @arg @ref LL_GPIO_PIN_ALL
ARM GAS  F:\msys64\tmp\cc5aZRcQ.s 			page 26


 811:C:/Users/12522/STM32Cube/Repository/STM32Cube_FW_G4_V1.5.0/Drivers/STM32G4xx_HAL_Driver/Inc\stm32g4xx_ll_gpio.h ****   * @retval State of bit (1 or 0).
 812:C:/Users/12522/STM32Cube/Repository/STM32Cube_FW_G4_V1.5.0/Drivers/STM32G4xx_HAL_Driver/Inc\stm32g4xx_ll_gpio.h ****   */
 813:C:/Users/12522/STM32Cube/Repository/STM32Cube_FW_G4_V1.5.0/Drivers/STM32G4xx_HAL_Driver/Inc\stm32g4xx_ll_gpio.h **** __STATIC_INLINE uint32_t LL_GPIO_IsInputPinSet(GPIO_TypeDef *GPIOx, uint32_t PinMask)
 814:C:/Users/12522/STM32Cube/Repository/STM32Cube_FW_G4_V1.5.0/Drivers/STM32G4xx_HAL_Driver/Inc\stm32g4xx_ll_gpio.h **** {
 815:C:/Users/12522/STM32Cube/Repository/STM32Cube_FW_G4_V1.5.0/Drivers/STM32G4xx_HAL_Driver/Inc\stm32g4xx_ll_gpio.h ****   return ((READ_BIT(GPIOx->IDR, PinMask) == (PinMask)) ? 1UL : 0UL);
 816:C:/Users/12522/STM32Cube/Repository/STM32Cube_FW_G4_V1.5.0/Drivers/STM32G4xx_HAL_Driver/Inc\stm32g4xx_ll_gpio.h **** }
 817:C:/Users/12522/STM32Cube/Repository/STM32Cube_FW_G4_V1.5.0/Drivers/STM32G4xx_HAL_Driver/Inc\stm32g4xx_ll_gpio.h **** 
 818:C:/Users/12522/STM32Cube/Repository/STM32Cube_FW_G4_V1.5.0/Drivers/STM32G4xx_HAL_Driver/Inc\stm32g4xx_ll_gpio.h **** /**
 819:C:/Users/12522/STM32Cube/Repository/STM32Cube_FW_G4_V1.5.0/Drivers/STM32G4xx_HAL_Driver/Inc\stm32g4xx_ll_gpio.h ****   * @brief  Write output data register for the port.
 820:C:/Users/12522/STM32Cube/Repository/STM32Cube_FW_G4_V1.5.0/Drivers/STM32G4xx_HAL_Driver/Inc\stm32g4xx_ll_gpio.h ****   * @rmtoll ODR          ODy           LL_GPIO_WriteOutputPort
 821:C:/Users/12522/STM32Cube/Repository/STM32Cube_FW_G4_V1.5.0/Drivers/STM32G4xx_HAL_Driver/Inc\stm32g4xx_ll_gpio.h ****   * @param  GPIOx GPIO Port
 822:C:/Users/12522/STM32Cube/Repository/STM32Cube_FW_G4_V1.5.0/Drivers/STM32G4xx_HAL_Driver/Inc\stm32g4xx_ll_gpio.h ****   * @param  PortValue Level value for each pin of the port
 823:C:/Users/12522/STM32Cube/Repository/STM32Cube_FW_G4_V1.5.0/Drivers/STM32G4xx_HAL_Driver/Inc\stm32g4xx_ll_gpio.h ****   * @retval None
 824:C:/Users/12522/STM32Cube/Repository/STM32Cube_FW_G4_V1.5.0/Drivers/STM32G4xx_HAL_Driver/Inc\stm32g4xx_ll_gpio.h ****   */
 825:C:/Users/12522/STM32Cube/Repository/STM32Cube_FW_G4_V1.5.0/Drivers/STM32G4xx_HAL_Driver/Inc\stm32g4xx_ll_gpio.h **** __STATIC_INLINE void LL_GPIO_WriteOutputPort(GPIO_TypeDef *GPIOx, uint32_t PortValue)
 826:C:/Users/12522/STM32Cube/Repository/STM32Cube_FW_G4_V1.5.0/Drivers/STM32G4xx_HAL_Driver/Inc\stm32g4xx_ll_gpio.h **** {
 827:C:/Users/12522/STM32Cube/Repository/STM32Cube_FW_G4_V1.5.0/Drivers/STM32G4xx_HAL_Driver/Inc\stm32g4xx_ll_gpio.h ****   WRITE_REG(GPIOx->ODR, PortValue);
 828:C:/Users/12522/STM32Cube/Repository/STM32Cube_FW_G4_V1.5.0/Drivers/STM32G4xx_HAL_Driver/Inc\stm32g4xx_ll_gpio.h **** }
 829:C:/Users/12522/STM32Cube/Repository/STM32Cube_FW_G4_V1.5.0/Drivers/STM32G4xx_HAL_Driver/Inc\stm32g4xx_ll_gpio.h **** 
 830:C:/Users/12522/STM32Cube/Repository/STM32Cube_FW_G4_V1.5.0/Drivers/STM32G4xx_HAL_Driver/Inc\stm32g4xx_ll_gpio.h **** /**
 831:C:/Users/12522/STM32Cube/Repository/STM32Cube_FW_G4_V1.5.0/Drivers/STM32G4xx_HAL_Driver/Inc\stm32g4xx_ll_gpio.h ****   * @brief  Return full output data register value for a dedicated port.
 832:C:/Users/12522/STM32Cube/Repository/STM32Cube_FW_G4_V1.5.0/Drivers/STM32G4xx_HAL_Driver/Inc\stm32g4xx_ll_gpio.h ****   * @rmtoll ODR          ODy           LL_GPIO_ReadOutputPort
 833:C:/Users/12522/STM32Cube/Repository/STM32Cube_FW_G4_V1.5.0/Drivers/STM32G4xx_HAL_Driver/Inc\stm32g4xx_ll_gpio.h ****   * @param  GPIOx GPIO Port
 834:C:/Users/12522/STM32Cube/Repository/STM32Cube_FW_G4_V1.5.0/Drivers/STM32G4xx_HAL_Driver/Inc\stm32g4xx_ll_gpio.h ****   * @retval Output data register value of port
 835:C:/Users/12522/STM32Cube/Repository/STM32Cube_FW_G4_V1.5.0/Drivers/STM32G4xx_HAL_Driver/Inc\stm32g4xx_ll_gpio.h ****   */
 836:C:/Users/12522/STM32Cube/Repository/STM32Cube_FW_G4_V1.5.0/Drivers/STM32G4xx_HAL_Driver/Inc\stm32g4xx_ll_gpio.h **** __STATIC_INLINE uint32_t LL_GPIO_ReadOutputPort(GPIO_TypeDef *GPIOx)
 837:C:/Users/12522/STM32Cube/Repository/STM32Cube_FW_G4_V1.5.0/Drivers/STM32G4xx_HAL_Driver/Inc\stm32g4xx_ll_gpio.h **** {
 838:C:/Users/12522/STM32Cube/Repository/STM32Cube_FW_G4_V1.5.0/Drivers/STM32G4xx_HAL_Driver/Inc\stm32g4xx_ll_gpio.h ****   return (uint32_t)(READ_REG(GPIOx->ODR));
 839:C:/Users/12522/STM32Cube/Repository/STM32Cube_FW_G4_V1.5.0/Drivers/STM32G4xx_HAL_Driver/Inc\stm32g4xx_ll_gpio.h **** }
 840:C:/Users/12522/STM32Cube/Repository/STM32Cube_FW_G4_V1.5.0/Drivers/STM32G4xx_HAL_Driver/Inc\stm32g4xx_ll_gpio.h **** 
 841:C:/Users/12522/STM32Cube/Repository/STM32Cube_FW_G4_V1.5.0/Drivers/STM32G4xx_HAL_Driver/Inc\stm32g4xx_ll_gpio.h **** /**
 842:C:/Users/12522/STM32Cube/Repository/STM32Cube_FW_G4_V1.5.0/Drivers/STM32G4xx_HAL_Driver/Inc\stm32g4xx_ll_gpio.h ****   * @brief  Return if input data level for several pins of dedicated port is high or low.
 843:C:/Users/12522/STM32Cube/Repository/STM32Cube_FW_G4_V1.5.0/Drivers/STM32G4xx_HAL_Driver/Inc\stm32g4xx_ll_gpio.h ****   * @rmtoll ODR          ODy           LL_GPIO_IsOutputPinSet
 844:C:/Users/12522/STM32Cube/Repository/STM32Cube_FW_G4_V1.5.0/Drivers/STM32G4xx_HAL_Driver/Inc\stm32g4xx_ll_gpio.h ****   * @param  GPIOx GPIO Port
 845:C:/Users/12522/STM32Cube/Repository/STM32Cube_FW_G4_V1.5.0/Drivers/STM32G4xx_HAL_Driver/Inc\stm32g4xx_ll_gpio.h ****   * @param  PinMask This parameter can be a combination of the following values:
 846:C:/Users/12522/STM32Cube/Repository/STM32Cube_FW_G4_V1.5.0/Drivers/STM32G4xx_HAL_Driver/Inc\stm32g4xx_ll_gpio.h ****   *         @arg @ref LL_GPIO_PIN_0
 847:C:/Users/12522/STM32Cube/Repository/STM32Cube_FW_G4_V1.5.0/Drivers/STM32G4xx_HAL_Driver/Inc\stm32g4xx_ll_gpio.h ****   *         @arg @ref LL_GPIO_PIN_1
 848:C:/Users/12522/STM32Cube/Repository/STM32Cube_FW_G4_V1.5.0/Drivers/STM32G4xx_HAL_Driver/Inc\stm32g4xx_ll_gpio.h ****   *         @arg @ref LL_GPIO_PIN_2
 849:C:/Users/12522/STM32Cube/Repository/STM32Cube_FW_G4_V1.5.0/Drivers/STM32G4xx_HAL_Driver/Inc\stm32g4xx_ll_gpio.h ****   *         @arg @ref LL_GPIO_PIN_3
 850:C:/Users/12522/STM32Cube/Repository/STM32Cube_FW_G4_V1.5.0/Drivers/STM32G4xx_HAL_Driver/Inc\stm32g4xx_ll_gpio.h ****   *         @arg @ref LL_GPIO_PIN_4
 851:C:/Users/12522/STM32Cube/Repository/STM32Cube_FW_G4_V1.5.0/Drivers/STM32G4xx_HAL_Driver/Inc\stm32g4xx_ll_gpio.h ****   *         @arg @ref LL_GPIO_PIN_5
 852:C:/Users/12522/STM32Cube/Repository/STM32Cube_FW_G4_V1.5.0/Drivers/STM32G4xx_HAL_Driver/Inc\stm32g4xx_ll_gpio.h ****   *         @arg @ref LL_GPIO_PIN_6
 853:C:/Users/12522/STM32Cube/Repository/STM32Cube_FW_G4_V1.5.0/Drivers/STM32G4xx_HAL_Driver/Inc\stm32g4xx_ll_gpio.h ****   *         @arg @ref LL_GPIO_PIN_7
 854:C:/Users/12522/STM32Cube/Repository/STM32Cube_FW_G4_V1.5.0/Drivers/STM32G4xx_HAL_Driver/Inc\stm32g4xx_ll_gpio.h ****   *         @arg @ref LL_GPIO_PIN_8
 855:C:/Users/12522/STM32Cube/Repository/STM32Cube_FW_G4_V1.5.0/Drivers/STM32G4xx_HAL_Driver/Inc\stm32g4xx_ll_gpio.h ****   *         @arg @ref LL_GPIO_PIN_9
 856:C:/Users/12522/STM32Cube/Repository/STM32Cube_FW_G4_V1.5.0/Drivers/STM32G4xx_HAL_Driver/Inc\stm32g4xx_ll_gpio.h ****   *         @arg @ref LL_GPIO_PIN_10
 857:C:/Users/12522/STM32Cube/Repository/STM32Cube_FW_G4_V1.5.0/Drivers/STM32G4xx_HAL_Driver/Inc\stm32g4xx_ll_gpio.h ****   *         @arg @ref LL_GPIO_PIN_11
 858:C:/Users/12522/STM32Cube/Repository/STM32Cube_FW_G4_V1.5.0/Drivers/STM32G4xx_HAL_Driver/Inc\stm32g4xx_ll_gpio.h ****   *         @arg @ref LL_GPIO_PIN_12
 859:C:/Users/12522/STM32Cube/Repository/STM32Cube_FW_G4_V1.5.0/Drivers/STM32G4xx_HAL_Driver/Inc\stm32g4xx_ll_gpio.h ****   *         @arg @ref LL_GPIO_PIN_13
 860:C:/Users/12522/STM32Cube/Repository/STM32Cube_FW_G4_V1.5.0/Drivers/STM32G4xx_HAL_Driver/Inc\stm32g4xx_ll_gpio.h ****   *         @arg @ref LL_GPIO_PIN_14
 861:C:/Users/12522/STM32Cube/Repository/STM32Cube_FW_G4_V1.5.0/Drivers/STM32G4xx_HAL_Driver/Inc\stm32g4xx_ll_gpio.h ****   *         @arg @ref LL_GPIO_PIN_15
 862:C:/Users/12522/STM32Cube/Repository/STM32Cube_FW_G4_V1.5.0/Drivers/STM32G4xx_HAL_Driver/Inc\stm32g4xx_ll_gpio.h ****   *         @arg @ref LL_GPIO_PIN_ALL
 863:C:/Users/12522/STM32Cube/Repository/STM32Cube_FW_G4_V1.5.0/Drivers/STM32G4xx_HAL_Driver/Inc\stm32g4xx_ll_gpio.h ****   * @retval State of bit (1 or 0).
 864:C:/Users/12522/STM32Cube/Repository/STM32Cube_FW_G4_V1.5.0/Drivers/STM32G4xx_HAL_Driver/Inc\stm32g4xx_ll_gpio.h ****   */
 865:C:/Users/12522/STM32Cube/Repository/STM32Cube_FW_G4_V1.5.0/Drivers/STM32G4xx_HAL_Driver/Inc\stm32g4xx_ll_gpio.h **** __STATIC_INLINE uint32_t LL_GPIO_IsOutputPinSet(GPIO_TypeDef *GPIOx, uint32_t PinMask)
 866:C:/Users/12522/STM32Cube/Repository/STM32Cube_FW_G4_V1.5.0/Drivers/STM32G4xx_HAL_Driver/Inc\stm32g4xx_ll_gpio.h **** {
 867:C:/Users/12522/STM32Cube/Repository/STM32Cube_FW_G4_V1.5.0/Drivers/STM32G4xx_HAL_Driver/Inc\stm32g4xx_ll_gpio.h ****   return ((READ_BIT(GPIOx->ODR, PinMask) == (PinMask)) ? 1UL : 0UL);
ARM GAS  F:\msys64\tmp\cc5aZRcQ.s 			page 27


 868:C:/Users/12522/STM32Cube/Repository/STM32Cube_FW_G4_V1.5.0/Drivers/STM32G4xx_HAL_Driver/Inc\stm32g4xx_ll_gpio.h **** }
 869:C:/Users/12522/STM32Cube/Repository/STM32Cube_FW_G4_V1.5.0/Drivers/STM32G4xx_HAL_Driver/Inc\stm32g4xx_ll_gpio.h **** 
 870:C:/Users/12522/STM32Cube/Repository/STM32Cube_FW_G4_V1.5.0/Drivers/STM32G4xx_HAL_Driver/Inc\stm32g4xx_ll_gpio.h **** /**
 871:C:/Users/12522/STM32Cube/Repository/STM32Cube_FW_G4_V1.5.0/Drivers/STM32G4xx_HAL_Driver/Inc\stm32g4xx_ll_gpio.h ****   * @brief  Set several pins to high level on dedicated gpio port.
 872:C:/Users/12522/STM32Cube/Repository/STM32Cube_FW_G4_V1.5.0/Drivers/STM32G4xx_HAL_Driver/Inc\stm32g4xx_ll_gpio.h ****   * @rmtoll BSRR         BSy           LL_GPIO_SetOutputPin
 873:C:/Users/12522/STM32Cube/Repository/STM32Cube_FW_G4_V1.5.0/Drivers/STM32G4xx_HAL_Driver/Inc\stm32g4xx_ll_gpio.h ****   * @param  GPIOx GPIO Port
 874:C:/Users/12522/STM32Cube/Repository/STM32Cube_FW_G4_V1.5.0/Drivers/STM32G4xx_HAL_Driver/Inc\stm32g4xx_ll_gpio.h ****   * @param  PinMask This parameter can be a combination of the following values:
 875:C:/Users/12522/STM32Cube/Repository/STM32Cube_FW_G4_V1.5.0/Drivers/STM32G4xx_HAL_Driver/Inc\stm32g4xx_ll_gpio.h ****   *         @arg @ref LL_GPIO_PIN_0
 876:C:/Users/12522/STM32Cube/Repository/STM32Cube_FW_G4_V1.5.0/Drivers/STM32G4xx_HAL_Driver/Inc\stm32g4xx_ll_gpio.h ****   *         @arg @ref LL_GPIO_PIN_1
 877:C:/Users/12522/STM32Cube/Repository/STM32Cube_FW_G4_V1.5.0/Drivers/STM32G4xx_HAL_Driver/Inc\stm32g4xx_ll_gpio.h ****   *         @arg @ref LL_GPIO_PIN_2
 878:C:/Users/12522/STM32Cube/Repository/STM32Cube_FW_G4_V1.5.0/Drivers/STM32G4xx_HAL_Driver/Inc\stm32g4xx_ll_gpio.h ****   *         @arg @ref LL_GPIO_PIN_3
 879:C:/Users/12522/STM32Cube/Repository/STM32Cube_FW_G4_V1.5.0/Drivers/STM32G4xx_HAL_Driver/Inc\stm32g4xx_ll_gpio.h ****   *         @arg @ref LL_GPIO_PIN_4
 880:C:/Users/12522/STM32Cube/Repository/STM32Cube_FW_G4_V1.5.0/Drivers/STM32G4xx_HAL_Driver/Inc\stm32g4xx_ll_gpio.h ****   *         @arg @ref LL_GPIO_PIN_5
 881:C:/Users/12522/STM32Cube/Repository/STM32Cube_FW_G4_V1.5.0/Drivers/STM32G4xx_HAL_Driver/Inc\stm32g4xx_ll_gpio.h ****   *         @arg @ref LL_GPIO_PIN_6
 882:C:/Users/12522/STM32Cube/Repository/STM32Cube_FW_G4_V1.5.0/Drivers/STM32G4xx_HAL_Driver/Inc\stm32g4xx_ll_gpio.h ****   *         @arg @ref LL_GPIO_PIN_7
 883:C:/Users/12522/STM32Cube/Repository/STM32Cube_FW_G4_V1.5.0/Drivers/STM32G4xx_HAL_Driver/Inc\stm32g4xx_ll_gpio.h ****   *         @arg @ref LL_GPIO_PIN_8
 884:C:/Users/12522/STM32Cube/Repository/STM32Cube_FW_G4_V1.5.0/Drivers/STM32G4xx_HAL_Driver/Inc\stm32g4xx_ll_gpio.h ****   *         @arg @ref LL_GPIO_PIN_9
 885:C:/Users/12522/STM32Cube/Repository/STM32Cube_FW_G4_V1.5.0/Drivers/STM32G4xx_HAL_Driver/Inc\stm32g4xx_ll_gpio.h ****   *         @arg @ref LL_GPIO_PIN_10
 886:C:/Users/12522/STM32Cube/Repository/STM32Cube_FW_G4_V1.5.0/Drivers/STM32G4xx_HAL_Driver/Inc\stm32g4xx_ll_gpio.h ****   *         @arg @ref LL_GPIO_PIN_11
 887:C:/Users/12522/STM32Cube/Repository/STM32Cube_FW_G4_V1.5.0/Drivers/STM32G4xx_HAL_Driver/Inc\stm32g4xx_ll_gpio.h ****   *         @arg @ref LL_GPIO_PIN_12
 888:C:/Users/12522/STM32Cube/Repository/STM32Cube_FW_G4_V1.5.0/Drivers/STM32G4xx_HAL_Driver/Inc\stm32g4xx_ll_gpio.h ****   *         @arg @ref LL_GPIO_PIN_13
 889:C:/Users/12522/STM32Cube/Repository/STM32Cube_FW_G4_V1.5.0/Drivers/STM32G4xx_HAL_Driver/Inc\stm32g4xx_ll_gpio.h ****   *         @arg @ref LL_GPIO_PIN_14
 890:C:/Users/12522/STM32Cube/Repository/STM32Cube_FW_G4_V1.5.0/Drivers/STM32G4xx_HAL_Driver/Inc\stm32g4xx_ll_gpio.h ****   *         @arg @ref LL_GPIO_PIN_15
 891:C:/Users/12522/STM32Cube/Repository/STM32Cube_FW_G4_V1.5.0/Drivers/STM32G4xx_HAL_Driver/Inc\stm32g4xx_ll_gpio.h ****   *         @arg @ref LL_GPIO_PIN_ALL
 892:C:/Users/12522/STM32Cube/Repository/STM32Cube_FW_G4_V1.5.0/Drivers/STM32G4xx_HAL_Driver/Inc\stm32g4xx_ll_gpio.h ****   * @retval None
 893:C:/Users/12522/STM32Cube/Repository/STM32Cube_FW_G4_V1.5.0/Drivers/STM32G4xx_HAL_Driver/Inc\stm32g4xx_ll_gpio.h ****   */
 894:C:/Users/12522/STM32Cube/Repository/STM32Cube_FW_G4_V1.5.0/Drivers/STM32G4xx_HAL_Driver/Inc\stm32g4xx_ll_gpio.h **** __STATIC_INLINE void LL_GPIO_SetOutputPin(GPIO_TypeDef *GPIOx, uint32_t PinMask)
 895:C:/Users/12522/STM32Cube/Repository/STM32Cube_FW_G4_V1.5.0/Drivers/STM32G4xx_HAL_Driver/Inc\stm32g4xx_ll_gpio.h **** {
 896:C:/Users/12522/STM32Cube/Repository/STM32Cube_FW_G4_V1.5.0/Drivers/STM32G4xx_HAL_Driver/Inc\stm32g4xx_ll_gpio.h ****   WRITE_REG(GPIOx->BSRR, PinMask);
 897:C:/Users/12522/STM32Cube/Repository/STM32Cube_FW_G4_V1.5.0/Drivers/STM32G4xx_HAL_Driver/Inc\stm32g4xx_ll_gpio.h **** }
 898:C:/Users/12522/STM32Cube/Repository/STM32Cube_FW_G4_V1.5.0/Drivers/STM32G4xx_HAL_Driver/Inc\stm32g4xx_ll_gpio.h **** 
 899:C:/Users/12522/STM32Cube/Repository/STM32Cube_FW_G4_V1.5.0/Drivers/STM32G4xx_HAL_Driver/Inc\stm32g4xx_ll_gpio.h **** /**
 900:C:/Users/12522/STM32Cube/Repository/STM32Cube_FW_G4_V1.5.0/Drivers/STM32G4xx_HAL_Driver/Inc\stm32g4xx_ll_gpio.h ****   * @brief  Set several pins to low level on dedicated gpio port.
 901:C:/Users/12522/STM32Cube/Repository/STM32Cube_FW_G4_V1.5.0/Drivers/STM32G4xx_HAL_Driver/Inc\stm32g4xx_ll_gpio.h ****   * @rmtoll BRR          BRy           LL_GPIO_ResetOutputPin
 902:C:/Users/12522/STM32Cube/Repository/STM32Cube_FW_G4_V1.5.0/Drivers/STM32G4xx_HAL_Driver/Inc\stm32g4xx_ll_gpio.h ****   * @param  GPIOx GPIO Port
 903:C:/Users/12522/STM32Cube/Repository/STM32Cube_FW_G4_V1.5.0/Drivers/STM32G4xx_HAL_Driver/Inc\stm32g4xx_ll_gpio.h ****   * @param  PinMask This parameter can be a combination of the following values:
 904:C:/Users/12522/STM32Cube/Repository/STM32Cube_FW_G4_V1.5.0/Drivers/STM32G4xx_HAL_Driver/Inc\stm32g4xx_ll_gpio.h ****   *         @arg @ref LL_GPIO_PIN_0
 905:C:/Users/12522/STM32Cube/Repository/STM32Cube_FW_G4_V1.5.0/Drivers/STM32G4xx_HAL_Driver/Inc\stm32g4xx_ll_gpio.h ****   *         @arg @ref LL_GPIO_PIN_1
 906:C:/Users/12522/STM32Cube/Repository/STM32Cube_FW_G4_V1.5.0/Drivers/STM32G4xx_HAL_Driver/Inc\stm32g4xx_ll_gpio.h ****   *         @arg @ref LL_GPIO_PIN_2
 907:C:/Users/12522/STM32Cube/Repository/STM32Cube_FW_G4_V1.5.0/Drivers/STM32G4xx_HAL_Driver/Inc\stm32g4xx_ll_gpio.h ****   *         @arg @ref LL_GPIO_PIN_3
 908:C:/Users/12522/STM32Cube/Repository/STM32Cube_FW_G4_V1.5.0/Drivers/STM32G4xx_HAL_Driver/Inc\stm32g4xx_ll_gpio.h ****   *         @arg @ref LL_GPIO_PIN_4
 909:C:/Users/12522/STM32Cube/Repository/STM32Cube_FW_G4_V1.5.0/Drivers/STM32G4xx_HAL_Driver/Inc\stm32g4xx_ll_gpio.h ****   *         @arg @ref LL_GPIO_PIN_5
 910:C:/Users/12522/STM32Cube/Repository/STM32Cube_FW_G4_V1.5.0/Drivers/STM32G4xx_HAL_Driver/Inc\stm32g4xx_ll_gpio.h ****   *         @arg @ref LL_GPIO_PIN_6
 911:C:/Users/12522/STM32Cube/Repository/STM32Cube_FW_G4_V1.5.0/Drivers/STM32G4xx_HAL_Driver/Inc\stm32g4xx_ll_gpio.h ****   *         @arg @ref LL_GPIO_PIN_7
 912:C:/Users/12522/STM32Cube/Repository/STM32Cube_FW_G4_V1.5.0/Drivers/STM32G4xx_HAL_Driver/Inc\stm32g4xx_ll_gpio.h ****   *         @arg @ref LL_GPIO_PIN_8
 913:C:/Users/12522/STM32Cube/Repository/STM32Cube_FW_G4_V1.5.0/Drivers/STM32G4xx_HAL_Driver/Inc\stm32g4xx_ll_gpio.h ****   *         @arg @ref LL_GPIO_PIN_9
 914:C:/Users/12522/STM32Cube/Repository/STM32Cube_FW_G4_V1.5.0/Drivers/STM32G4xx_HAL_Driver/Inc\stm32g4xx_ll_gpio.h ****   *         @arg @ref LL_GPIO_PIN_10
 915:C:/Users/12522/STM32Cube/Repository/STM32Cube_FW_G4_V1.5.0/Drivers/STM32G4xx_HAL_Driver/Inc\stm32g4xx_ll_gpio.h ****   *         @arg @ref LL_GPIO_PIN_11
 916:C:/Users/12522/STM32Cube/Repository/STM32Cube_FW_G4_V1.5.0/Drivers/STM32G4xx_HAL_Driver/Inc\stm32g4xx_ll_gpio.h ****   *         @arg @ref LL_GPIO_PIN_12
 917:C:/Users/12522/STM32Cube/Repository/STM32Cube_FW_G4_V1.5.0/Drivers/STM32G4xx_HAL_Driver/Inc\stm32g4xx_ll_gpio.h ****   *         @arg @ref LL_GPIO_PIN_13
 918:C:/Users/12522/STM32Cube/Repository/STM32Cube_FW_G4_V1.5.0/Drivers/STM32G4xx_HAL_Driver/Inc\stm32g4xx_ll_gpio.h ****   *         @arg @ref LL_GPIO_PIN_14
 919:C:/Users/12522/STM32Cube/Repository/STM32Cube_FW_G4_V1.5.0/Drivers/STM32G4xx_HAL_Driver/Inc\stm32g4xx_ll_gpio.h ****   *         @arg @ref LL_GPIO_PIN_15
 920:C:/Users/12522/STM32Cube/Repository/STM32Cube_FW_G4_V1.5.0/Drivers/STM32G4xx_HAL_Driver/Inc\stm32g4xx_ll_gpio.h ****   *         @arg @ref LL_GPIO_PIN_ALL
 921:C:/Users/12522/STM32Cube/Repository/STM32Cube_FW_G4_V1.5.0/Drivers/STM32G4xx_HAL_Driver/Inc\stm32g4xx_ll_gpio.h ****   * @retval None
 922:C:/Users/12522/STM32Cube/Repository/STM32Cube_FW_G4_V1.5.0/Drivers/STM32G4xx_HAL_Driver/Inc\stm32g4xx_ll_gpio.h ****   */
 923:C:/Users/12522/STM32Cube/Repository/STM32Cube_FW_G4_V1.5.0/Drivers/STM32G4xx_HAL_Driver/Inc\stm32g4xx_ll_gpio.h **** __STATIC_INLINE void LL_GPIO_ResetOutputPin(GPIO_TypeDef *GPIOx, uint32_t PinMask)
 102              		.loc 3 923 22 view .LVU22
ARM GAS  F:\msys64\tmp\cc5aZRcQ.s 			page 28


 103              	.LBB13:
 924:C:/Users/12522/STM32Cube/Repository/STM32Cube_FW_G4_V1.5.0/Drivers/STM32G4xx_HAL_Driver/Inc\stm32g4xx_ll_gpio.h **** {
 925:C:/Users/12522/STM32Cube/Repository/STM32Cube_FW_G4_V1.5.0/Drivers/STM32G4xx_HAL_Driver/Inc\stm32g4xx_ll_gpio.h ****   WRITE_REG(GPIOx->BRR, PinMask);
 104              		.loc 3 925 3 view .LVU23
 105 0038 4FF09040 		mov	r0, #1207959552
 106 003c 2023     		movs	r3, #32
 107 003e 8362     		str	r3, [r0, #40]
 108              	.LVL3:
 109              		.loc 3 925 3 is_stmt 0 view .LVU24
 110              	.LBE13:
 111              	.LBE12:
  53:Core/Src/gpio.c **** 
  54:Core/Src/gpio.c ****   /**/
  55:Core/Src/gpio.c ****   GPIO_InitStruct.Pin = LED_Pin;
 112              		.loc 1 55 3 is_stmt 1 view .LVU25
 113              		.loc 1 55 23 is_stmt 0 view .LVU26
 114 0040 0293     		str	r3, [sp, #8]
  56:Core/Src/gpio.c ****   GPIO_InitStruct.Mode = LL_GPIO_MODE_OUTPUT;
 115              		.loc 1 56 3 is_stmt 1 view .LVU27
 116              		.loc 1 56 24 is_stmt 0 view .LVU28
 117 0042 0125     		movs	r5, #1
 118 0044 0395     		str	r5, [sp, #12]
  57:Core/Src/gpio.c ****   GPIO_InitStruct.Speed = LL_GPIO_SPEED_FREQ_LOW;
 119              		.loc 1 57 3 is_stmt 1 view .LVU29
  58:Core/Src/gpio.c ****   GPIO_InitStruct.OutputType = LL_GPIO_OUTPUT_PUSHPULL;
 120              		.loc 1 58 3 view .LVU30
  59:Core/Src/gpio.c ****   GPIO_InitStruct.Pull = LL_GPIO_PULL_NO;
 121              		.loc 1 59 3 view .LVU31
  60:Core/Src/gpio.c ****   LL_GPIO_Init(LED_GPIO_Port, &GPIO_InitStruct);
 122              		.loc 1 60 3 view .LVU32
 123 0046 02A9     		add	r1, sp, #8
 124 0048 FFF7FEFF 		bl	LL_GPIO_Init
 125              	.LVL4:
  61:Core/Src/gpio.c **** 
  62:Core/Src/gpio.c ****   /**/
  63:Core/Src/gpio.c ****   GPIO_InitStruct.Pin = BT_Pin;
 126              		.loc 1 63 3 view .LVU33
 127              		.loc 1 63 23 is_stmt 0 view .LVU34
 128 004c 8023     		movs	r3, #128
 129 004e 0293     		str	r3, [sp, #8]
  64:Core/Src/gpio.c ****   GPIO_InitStruct.Mode = LL_GPIO_MODE_INPUT;
 130              		.loc 1 64 3 is_stmt 1 view .LVU35
 131              		.loc 1 64 24 is_stmt 0 view .LVU36
 132 0050 0394     		str	r4, [sp, #12]
  65:Core/Src/gpio.c ****   GPIO_InitStruct.Pull = LL_GPIO_PULL_UP;
 133              		.loc 1 65 3 is_stmt 1 view .LVU37
 134              		.loc 1 65 24 is_stmt 0 view .LVU38
 135 0052 0695     		str	r5, [sp, #24]
  66:Core/Src/gpio.c ****   LL_GPIO_Init(BT_GPIO_Port, &GPIO_InitStruct);
 136              		.loc 1 66 3 is_stmt 1 view .LVU39
 137 0054 02A9     		add	r1, sp, #8
 138 0056 0348     		ldr	r0, .L3+4
 139 0058 FFF7FEFF 		bl	LL_GPIO_Init
 140              	.LVL5:
  67:Core/Src/gpio.c **** 
  68:Core/Src/gpio.c **** }
 141              		.loc 1 68 1 is_stmt 0 view .LVU40
ARM GAS  F:\msys64\tmp\cc5aZRcQ.s 			page 29


 142 005c 09B0     		add	sp, sp, #36
 143              	.LCFI2:
 144              		.cfi_def_cfa_offset 12
 145              		@ sp needed
 146 005e 30BD     		pop	{r4, r5, pc}
 147              	.L4:
 148              		.align	2
 149              	.L3:
 150 0060 00100240 		.word	1073876992
 151 0064 00040048 		.word	1207960576
 152              		.cfi_endproc
 153              	.LFE776:
 155              		.text
 156              	.Letext0:
 157              		.file 4 "f:\\stm32\\win-dev-tools\\gcc-arm-none-eabi\\arm-none-eabi\\include\\machine\\_default_ty
 158              		.file 5 "f:\\stm32\\win-dev-tools\\gcc-arm-none-eabi\\arm-none-eabi\\include\\sys\\_stdint.h"
 159              		.file 6 "C:/Users/12522/STM32Cube/Repository/STM32Cube_FW_G4_V1.5.0/Drivers/CMSIS/Device/ST/STM32G
 160              		.file 7 "C:/Users/12522/STM32Cube/Repository/STM32Cube_FW_G4_V1.5.0/Drivers/STM32G4xx_HAL_Driver/I
ARM GAS  F:\msys64\tmp\cc5aZRcQ.s 			page 30

